
memory_game.elf:     file format elf32-littlenios2
memory_game.elf
architecture: nios2:r1, flags 0x00000112:
EXEC_P, HAS_SYMS, D_PAGED
start address 0x00040244

Program Header:
    LOAD off    0x00001000 vaddr 0x00040000 paddr 0x00040000 align 2**12
         filesz 0x00000020 memsz 0x00000020 flags r-x
    LOAD off    0x00001020 vaddr 0x00040020 paddr 0x00040020 align 2**12
         filesz 0x00012dd8 memsz 0x00012dd8 flags r-x
    LOAD off    0x00013df8 vaddr 0x00052df8 paddr 0x00054c9c align 2**12
         filesz 0x00001ea4 memsz 0x00001ea4 flags rw-
    LOAD off    0x00016b40 vaddr 0x00056b40 paddr 0x00056b40 align 2**12
         filesz 0x00000000 memsz 0x00000334 flags rw-

Sections:
Idx Name          Size      VMA       LMA       File off  Algn
  0 .entry        00000020  00040000  00040000  00001000  2**5
                  CONTENTS, ALLOC, LOAD, READONLY, CODE
  1 .exceptions   00000224  00040020  00040020  00001020  2**2
                  CONTENTS, ALLOC, LOAD, READONLY, CODE
  2 .text         00012434  00040244  00040244  00001244  2**2
                  CONTENTS, ALLOC, LOAD, READONLY, CODE
  3 .rodata       00000780  00052678  00052678  00013678  2**2
                  CONTENTS, ALLOC, LOAD, READONLY, DATA
  4 .rwdata       00001ea4  00052df8  00054c9c  00013df8  2**2
                  CONTENTS, ALLOC, LOAD, DATA, SMALL_DATA
  5 .bss          00000334  00056b40  00056b40  00016b40  2**2
                  ALLOC, SMALL_DATA
  6 .onchip_memory2 00000000  00056e74  00056e74  00015c9c  2**0
                  CONTENTS
  7 .comment      00000023  00000000  00000000  00015c9c  2**0
                  CONTENTS, READONLY
  8 .debug_aranges 00001208  00000000  00000000  00015cc0  2**3
                  CONTENTS, READONLY, DEBUGGING
  9 .debug_info   0002f1d4  00000000  00000000  00016ec8  2**0
                  CONTENTS, READONLY, DEBUGGING
 10 .debug_abbrev 0000ba9b  00000000  00000000  0004609c  2**0
                  CONTENTS, READONLY, DEBUGGING
 11 .debug_line   0000dfbd  00000000  00000000  00051b37  2**0
                  CONTENTS, READONLY, DEBUGGING
 12 .debug_frame  00002b40  00000000  00000000  0005faf4  2**2
                  CONTENTS, READONLY, DEBUGGING
 13 .debug_str    000044ce  00000000  00000000  00062634  2**0
                  CONTENTS, READONLY, DEBUGGING
 14 .debug_loc    0001892a  00000000  00000000  00066b02  2**0
                  CONTENTS, READONLY, DEBUGGING
 15 .debug_alt_sim_info 00000060  00000000  00000000  0007f42c  2**2
                  CONTENTS, READONLY, DEBUGGING
 16 .debug_ranges 00001a58  00000000  00000000  0007f490  2**3
                  CONTENTS, READONLY, DEBUGGING
 17 .thread_model 00000003  00000000  00000000  00084c8e  2**0
                  CONTENTS, READONLY
 18 .cpu          00000008  00000000  00000000  00084c91  2**0
                  CONTENTS, READONLY
 19 .qsys         00000001  00000000  00000000  00084c99  2**0
                  CONTENTS, READONLY
 20 .simulation_enabled 00000001  00000000  00000000  00084c9a  2**0
                  CONTENTS, READONLY
 21 .stderr_dev   00000009  00000000  00000000  00084c9b  2**0
                  CONTENTS, READONLY
 22 .stdin_dev    00000009  00000000  00000000  00084ca4  2**0
                  CONTENTS, READONLY
 23 .stdout_dev   00000009  00000000  00000000  00084cad  2**0
                  CONTENTS, READONLY
 24 .sopc_system_name 0000000c  00000000  00000000  00084cb6  2**0
                  CONTENTS, READONLY
 25 .quartus_project_dir 00000007  00000000  00000000  00084cc2  2**0
                  CONTENTS, READONLY
 26 .jdi          00005749  00000000  00000000  00084cc9  2**0
                  CONTENTS, READONLY
 27 .sopcinfo     00043b73  00000000  00000000  0008a412  2**0
                  CONTENTS, READONLY
SYMBOL TABLE:
00040000 l    d  .entry	00000000 .entry
00040020 l    d  .exceptions	00000000 .exceptions
00040244 l    d  .text	00000000 .text
00052678 l    d  .rodata	00000000 .rodata
00052df8 l    d  .rwdata	00000000 .rwdata
00056b40 l    d  .bss	00000000 .bss
00056e74 l    d  .onchip_memory2	00000000 .onchip_memory2
00000000 l    d  .comment	00000000 .comment
00000000 l    d  .debug_aranges	00000000 .debug_aranges
00000000 l    d  .debug_info	00000000 .debug_info
00000000 l    d  .debug_abbrev	00000000 .debug_abbrev
00000000 l    d  .debug_line	00000000 .debug_line
00000000 l    d  .debug_frame	00000000 .debug_frame
00000000 l    d  .debug_str	00000000 .debug_str
00000000 l    d  .debug_loc	00000000 .debug_loc
00000000 l    d  .debug_alt_sim_info	00000000 .debug_alt_sim_info
00000000 l    d  .debug_ranges	00000000 .debug_ranges
00000000 l    df *ABS*	00000000 ../memory_game_bsp//obj/HAL/src/crt0.o
0004028c l       .text	00000000 alt_after_alt_main
00000000 l    df *ABS*	00000000 alt_irq_handler.c
00000000 l    df *ABS*	00000000 alt_instruction_exception_entry.c
00000000 l    df *ABS*	00000000 btnLed.c
00056b40 l     O .bss	00000004 leds_status
000402d4 l     F .text	0000005c btnLed_handle_button_interrupts
00000000 l    df *ABS*	00000000 fsm.c
00040494 l     F .text	00000100 fsm_mainMenu
00040594 l     F .text	00000030 fsm_game
000405c4 l     F .text	00000100 fsm_settings
000406c4 l     F .text	0000011c fsm_highscores
00000000 l    df *ABS*	00000000 game.c
00056ba8 l     O .bss	00000190 correct_sequence
00056b50 l     O .bss	00000004 correct_sequence_len
00056b54 l     O .bss	00000004 user_sequence_len
00040908 l     F .text	00000038 game_isEndOfSequence
00040940 l     F .text	000000d4 game_isCorrectInput
00040a14 l     F .text	00000088 game_appendNewTask
00040a9c l     F .text	0000026c game_displayCorrectSequence
00040d08 l     F .text	000000ec game_displayGameStart
00040df4 l     F .text	0000013c game_displayGameOver
00040f30 l     F .text	00000034 game_init
00040f64 l     F .text	00000050 game_over
00000000 l    df *ABS*	00000000 highscore.c
00056d38 l     O .bss	00000014 highscore_list
00000000 l    df *ABS*	00000000 lcd.c
00000000 l    df *ABS*	00000000 main.c
00000000 l    df *ABS*	00000000 menu.c
00000000 l    df *ABS*	00000000 lib2-divmod.c
00000000 l    df *ABS*	00000000 fopen.c
00000000 l    df *ABS*	00000000 fprintf.c
00000000 l    df *ABS*	00000000 fseek.c
00000000 l    df *ABS*	00000000 fseeko.c
00000000 l    df *ABS*	00000000 fstatr.c
00000000 l    df *ABS*	00000000 fwrite.c
00000000 l    df *ABS*	00000000 impure.c
00053078 l     O .rwdata	00000424 impure_data
00000000 l    df *ABS*	00000000 int_errno.c
00000000 l    df *ABS*	00000000 makebuf.c
00000000 l    df *ABS*	00000000 mallocr.c
00000000 l    df *ABS*	00000000 memset.c
00000000 l    df *ABS*	00000000 openr.c
00000000 l    df *ABS*	00000000 printf.c
00000000 l    df *ABS*	00000000 puts.c
00000000 l    df *ABS*	00000000 rand.c
00000000 l    df *ABS*	00000000 refill.c
00042dcc l     F .text	0000001c lflush
00000000 l    df *ABS*	00000000 sbrkr.c
00000000 l    df *ABS*	00000000 stdio.c
00000000 l    df *ABS*	00000000 strcat.c
00000000 l    df *ABS*	00000000 strcpy.c
00000000 l    df *ABS*	00000000 strlen.c
00000000 l    df *ABS*	00000000 time.c
00000000 l    df *ABS*	00000000 vfprintf.c
000528b6 l     O .rodata	00000010 zeroes.4404
0004555c l     F .text	000000bc __sbprintf
000528c6 l     O .rodata	00000010 blanks.4403
00000000 l    df *ABS*	00000000 writer.c
00000000 l    df *ABS*	00000000 wsetup.c
00000000 l    df *ABS*	00000000 closer.c
00000000 l    df *ABS*	00000000 dtoa.c
00045820 l     F .text	00000200 quorem
00000000 l    df *ABS*	00000000 fflush.c
00000000 l    df *ABS*	00000000 findfp.c
00047350 l     F .text	00000008 __fp_unlock
00047364 l     F .text	0000019c __sinit.part.1
00047500 l     F .text	00000008 __fp_lock
00000000 l    df *ABS*	00000000 flags.c
00000000 l    df *ABS*	00000000 mallocr.c
00000000 l    df *ABS*	00000000 fvwrite.c
00000000 l    df *ABS*	00000000 fwalk.c
00000000 l    df *ABS*	00000000 gettimeofdayr.c
00000000 l    df *ABS*	00000000 isattyr.c
00000000 l    df *ABS*	00000000 locale.c
000538c4 l     O .rwdata	00000020 lc_ctype_charset
000538a4 l     O .rwdata	00000020 lc_message_charset
000538e4 l     O .rwdata	00000038 lconv
00000000 l    df *ABS*	00000000 lseekr.c
00000000 l    df *ABS*	00000000 memchr.c
00000000 l    df *ABS*	00000000 memcpy.c
00000000 l    df *ABS*	00000000 memmove.c
00000000 l    df *ABS*	00000000 mprec.c
000528f4 l     O .rodata	0000000c p05.2768
00000000 l    df *ABS*	00000000 readr.c
00000000 l    df *ABS*	00000000 mallocr.c
00000000 l    df *ABS*	00000000 s_fpclassify.c
00000000 l    df *ABS*	00000000 strcmp.c
00000000 l    df *ABS*	00000000 vfprintf.c
00049e98 l     F .text	000000fc __sprint_r.part.0
00052a28 l     O .rodata	00000010 blanks.4348
00052a18 l     O .rodata	00000010 zeroes.4349
0004b424 l     F .text	000000bc __sbprintf
00000000 l    df *ABS*	00000000 mallocr.c
00000000 l    df *ABS*	00000000 fclose.c
00000000 l    df *ABS*	00000000 fputwc.c
00000000 l    df *ABS*	00000000 wbuf.c
00000000 l    df *ABS*	00000000 wcrtomb.c
00000000 l    df *ABS*	00000000 wctomb_r.c
00000000 l    df *ABS*	00000000 libgcc2.c
00000000 l    df *ABS*	00000000 libgcc2.c
00000000 l    df *ABS*	00000000 libgcc2.c
00000000 l    df *ABS*	00000000 adddf3.c
00000000 l    df *ABS*	00000000 divdf3.c
00000000 l    df *ABS*	00000000 eqdf2.c
00000000 l    df *ABS*	00000000 gedf2.c
00000000 l    df *ABS*	00000000 ledf2.c
00000000 l    df *ABS*	00000000 muldf3.c
00000000 l    df *ABS*	00000000 subdf3.c
00000000 l    df *ABS*	00000000 fixdfsi.c
00000000 l    df *ABS*	00000000 floatsidf.c
00000000 l    df *ABS*	00000000 floatunsidf.c
00000000 l    df *ABS*	00000000 libgcc2.c
00000000 l    df *ABS*	00000000 libgcc2.c
00000000 l    df *ABS*	00000000 alt_close.c
0004ed68 l     F .text	0000003c alt_get_errno
00000000 l    df *ABS*	00000000 alt_dev.c
0004ee74 l     F .text	0000002c alt_dev_null_write
00000000 l    df *ABS*	00000000 alt_errno.c
00000000 l    df *ABS*	00000000 alt_fstat.c
0004eea0 l     F .text	0000003c alt_get_errno
00000000 l    df *ABS*	00000000 alt_gettod.c
00000000 l    df *ABS*	00000000 alt_iic.c
00000000 l    df *ABS*	00000000 alt_iic_isr_register.c
00000000 l    df *ABS*	00000000 alt_irq_vars.c
00000000 l    df *ABS*	00000000 alt_isatty.c
0004f420 l     F .text	0000003c alt_get_errno
00000000 l    df *ABS*	00000000 alt_load.c
0004f500 l     F .text	00000068 alt_load_section
00000000 l    df *ABS*	00000000 alt_lseek.c
0004f5ec l     F .text	0000003c alt_get_errno
00000000 l    df *ABS*	00000000 alt_main.c
00000000 l    df *ABS*	00000000 alt_malloc_lock.c
00000000 l    df *ABS*	00000000 alt_open.c
0004f7c0 l     F .text	0000003c alt_get_errno
0004f7fc l     F .text	000000c4 alt_file_locked
00000000 l    df *ABS*	00000000 alt_read.c
0004fa14 l     F .text	0000003c alt_get_errno
00000000 l    df *ABS*	00000000 alt_release_fd.c
00000000 l    df *ABS*	00000000 alt_sbrk.c
00054c88 l     O .rwdata	00000004 heap_end
00000000 l    df *ABS*	00000000 alt_tick.c
00000000 l    df *ABS*	00000000 alt_usleep.c
00000000 l    df *ABS*	00000000 alt_write.c
0004fe34 l     F .text	0000003c alt_get_errno
00000000 l    df *ABS*	00000000 alt_sys_init.c
0004ff68 l     F .text	00000034 alt_dev_reg
00053ac4 l     O .rwdata	00001060 jtag_uart
00054b24 l     O .rwdata	00000120 lcd_display
00000000 l    df *ABS*	00000000 altera_avalon_jtag_uart_fd.c
00000000 l    df *ABS*	00000000 altera_avalon_jtag_uart_init.c
00050258 l     F .text	0000020c altera_avalon_jtag_uart_irq
00050464 l     F .text	000000a0 altera_avalon_jtag_uart_timeout
00000000 l    df *ABS*	00000000 altera_avalon_jtag_uart_ioctl.c
00000000 l    df *ABS*	00000000 altera_avalon_jtag_uart_read.c
00000000 l    df *ABS*	00000000 altera_avalon_jtag_uart_write.c
00000000 l    df *ABS*	00000000 altera_avalon_lcd_16207.c
00054c94 l     O .rwdata	00000004 colstart
00050a9c l     F .text	000000b8 lcd_write_command
00050b54 l     F .text	000000d8 lcd_write_data
00050c2c l     F .text	000000d0 lcd_clear_screen
00050cfc l     F .text	000001ec lcd_repaint_screen
00050ee8 l     F .text	000000cc lcd_scroll_up
00050fb4 l     F .text	000002ac lcd_handle_escape
00051738 l     F .text	000000ac alt_lcd_16207_timeout
00000000 l    df *ABS*	00000000 altera_avalon_lcd_16207_fd.c
00000000 l    df *ABS*	00000000 alt_alarm_start.c
00000000 l    df *ABS*	00000000 alt_busy_sleep.c
00000000 l    df *ABS*	00000000 alt_dcache_flush_all.c
00000000 l    df *ABS*	00000000 alt_dev_llist_insert.c
00051c44 l     F .text	0000003c alt_get_errno
00000000 l    df *ABS*	00000000 alt_do_ctors.c
00000000 l    df *ABS*	00000000 alt_do_dtors.c
00000000 l    df *ABS*	00000000 alt_find_dev.c
00000000 l    df *ABS*	00000000 alt_find_file.c
00000000 l    df *ABS*	00000000 alt_get_fd.c
00000000 l    df *ABS*	00000000 alt_icache_flush_all.c
00000000 l    df *ABS*	00000000 alt_io_redirect.c
000520f0 l     F .text	000000c4 alt_open_fd
00000000 l    df *ABS*	00000000 altera_nios2_gen2_irq.c
00000000 l    df *ABS*	00000000 alt_icache_flush.c
00000000 l    df *ABS*	00000000 atexit.c
00000000 l    df *ABS*	00000000 ctype_.c
00052c76 l     O .rodata	00000180 _ctype_b
00000000 l    df *ABS*	00000000 exit.c
00000000 l    df *ABS*	00000000 memcmp.c
00000000 l    df *ABS*	00000000 __atexit.c
00000000 l    df *ABS*	00000000 __call_atexit.c
00000000 l    df *ABS*	00000000 alt_exit.c
00056ba4 g     O .bss	00000004 alt_instruction_exception_handler
0004960c g     F .text	00000074 _mprec_log10
000496f8 g     F .text	0000008c __any_on
00048270 g     F .text	00000054 _isatty_r
00052900 g     O .rodata	00000028 __mprec_tinytens
0004f6fc g     F .text	0000007c alt_main
000431d0 g     F .text	00000090 strcpy
00042c7c g     F .text	000000c0 _puts_r
00056d74 g     O .bss	00000100 alt_irq
000483a0 g     F .text	00000060 _lseek_r
00054c9c g       *ABS*	00000000 __flash_rwdata_start
000476f0 g     F .text	000000ac __sflags
0004d894 g     F .text	00000088 .hidden __eqdf2
00048214 g     F .text	0000005c _gettimeofday_r
00056e74 g       *ABS*	00000000 __alt_heap_start
00041614 g     F .text	000000a4 menu_about
00042c40 g     F .text	0000003c printf
0004ba08 g     F .text	0000009c _wcrtomb_r
000430e8 g     F .text	0000005c __sseek
000476a0 g     F .text	00000010 __sinit
0004b8b0 g     F .text	00000140 __swbuf_r
00056b4c g     O .bss	00000004 lcd
000482c4 g     F .text	0000007c _setlocale_r
00047508 g     F .text	00000068 __sfmoreglue
0004f79c g     F .text	00000024 __malloc_unlock
00053038 g     O .rwdata	00000010 highscores_page
0004862c g     F .text	0000015c memmove
00047688 g     F .text	00000018 _cleanup
00048788 g     F .text	000000a8 _Balloc
0004d91c g     F .text	000000dc .hidden __gtdf2
00052230 g     F .text	00000024 altera_nios2_gen2_irq_init
000407e0 g     F .text	0000006c fsm
00040000 g     F .entry	0000001c __reset
00056b44 g     O .bss	00000004 edge_capture
00040020 g       *ABS*	00000000 __flash_exceptions_start
00041f64 g     F .text	0000005c _fstat_r
00056b60 g     O .bss	00000004 errno
00043064 g     F .text	00000008 __seofread
00056b94 g     O .bss	00000004 alt_argv
0005cc44 g       *ABS*	00000000 _gp
0004fe04 g     F .text	00000030 usleep
000410b8 g     F .text	000000fc highscore_update
000411b4 g     F .text	000000b0 highscore_display
00053944 g     O .rwdata	00000180 alt_fd_list
00052ff0 g     O .rwdata	00000038 difficulty_page_items
00051de4 g     F .text	00000090 alt_find_dev
000484e4 g     F .text	00000148 memcpy
00041088 g     F .text	00000030 game_set_hard_difficulty
00047358 g     F .text	0000000c _cleanup_r
0004eb80 g     F .text	000000dc .hidden __floatsidf
000521b4 g     F .text	0000007c alt_io_redirect
0004d9f8 g     F .text	000000f4 .hidden __ltdf2
00052678 g       *ABS*	00000000 __DTOR_END__
00042d3c g     F .text	00000014 puts
00052054 g     F .text	0000009c alt_exception_cause_generated_bad_addr
00049d48 g     F .text	00000074 __fpclassifyd
00049568 g     F .text	000000a4 __ratio
0004b408 g     F .text	0000001c __vfiprintf_internal
0005065c g     F .text	0000021c altera_avalon_jtag_uart_read
00042c10 g     F .text	00000030 _printf_r
000418d0 g     F .text	00000064 .hidden __udivsi3
0004f45c g     F .text	000000a4 isatty
00052950 g     O .rodata	000000c8 __mprec_tens
00048340 g     F .text	0000000c __locale_charset
00056b7c g     O .bss	00000008 alt_timezone
00052254 g     F .text	00000090 alt_icache_flush
00056b6c g     O .bss	00000004 __malloc_top_pad
00054c64 g     O .rwdata	00000004 __mb_cur_max
00048370 g     F .text	0000000c _localeconv_r
00048b94 g     F .text	0000003c __i2b
00047bd0 g     F .text	000004bc __sfvwrite_r
00042fbc g     F .text	00000054 _sbrk_r
00049784 g     F .text	00000060 _read_r
00054c7c g     O .rwdata	00000004 alt_max_fd
0004b5a4 g     F .text	000000f0 _fclose_r
00047320 g     F .text	00000030 fflush
00056b68 g     O .bss	00000004 __malloc_max_sbrked_mem
0004c700 g     F .text	000008ac .hidden __adddf3
00052ed8 g     O .rwdata	00000054 settings_page_items
00049310 g     F .text	0000010c __b2d
00053068 g     O .rwdata	00000010 difficulty_page
0004c1c8 g     F .text	00000538 .hidden __umoddi3
0004f628 g     F .text	000000d4 lseek
00054c54 g     O .rwdata	00000004 _global_impure_ptr
000497e4 g     F .text	00000564 _realloc_r
00056e74 g       *ABS*	00000000 __bss_end
0004f330 g     F .text	000000f0 alt_iic_isr_register
0004fcfc g     F .text	00000108 alt_tick
00040460 g     F .text	00000034 btnLed_clear_all_leds
0004bc50 g     F .text	00000578 .hidden __udivdi3
0004b80c g     F .text	00000024 _fputwc_r
000413a4 g     F .text	00000048 lcd_clear
00052928 g     O .rodata	00000028 __mprec_bigtens
00048978 g     F .text	00000104 __s2b
0004ec5c g     F .text	000000a8 .hidden __floatunsidf
00049050 g     F .text	00000060 __mcmp
000476c0 g     F .text	00000018 __fp_lock_all
0004f2e4 g     F .text	0000004c alt_ic_irq_enabled
00056b48 g     O .bss	00000004 state
0004fc60 g     F .text	0000009c alt_alarm_stop
00041454 g     F .text	000000ac menu_displayPage
00056b8c g     O .bss	00000004 alt_irq_active
00041b04 g     F .text	00000444 _fseeko_r
00053058 g     O .rwdata	00000010 about_page
000400fc g     F .exceptions	000000d4 alt_irq_handler
0005391c g     O .rwdata	00000028 alt_dev_null
00040fb4 g     F .text	000000a4 game_play
00051bfc g     F .text	00000048 alt_dcache_flush_all
00048a7c g     F .text	00000068 __hi0bits
0004eb00 g     F .text	00000080 .hidden __fixdfsi
00054c9c g       *ABS*	00000000 __ram_rwdata_end
00041264 g     F .text	000000cc highscore_reset
00054c74 g     O .rwdata	00000008 alt_dev_list
0004fe70 g     F .text	000000f8 write
00052df8 g       *ABS*	00000000 __ram_rodata_end
0004eedc g     F .text	000000b0 fstat
00041ac0 g     F .text	00000024 fprintf
0004d9f8 g     F .text	000000f4 .hidden __ledf2
0004314c g     F .text	00000084 strcat
00053048 g     O .rwdata	00000010 settings_page
00048dc8 g     F .text	00000140 __pow5mult
00049fac g     F .text	0000145c ___vfiprintf_internal_r
00056b78 g     O .bss	00000004 __nlocale_changed
00041934 g     F .text	00000058 .hidden __umodsi3
00052df8 g     O .rwdata	00000054 main_page_items
000416b8 g     F .text	00000120 menu_change_difficulty
00056e74 g       *ABS*	00000000 end
00051260 g     F .text	000004d8 altera_avalon_lcd_16207_write
00041f48 g     F .text	0000001c fseeko
00041ae8 g     F .text	0000001c fseek
00050198 g     F .text	000000c0 altera_avalon_jtag_uart_init
000401d0 g     F .exceptions	00000074 alt_instruction_exception_entry
00052678 g       *ABS*	00000000 __CTOR_LIST__
00072000 g       *ABS*	00000000 __alt_stack_pointer
0004ed04 g     F .text	00000064 .hidden __clzsi2
00050878 g     F .text	00000224 altera_avalon_jtag_uart_write
000476b0 g     F .text	00000004 __sfp_lock_acquire
00048400 g     F .text	000000e4 memchr
00043348 g     F .text	000021f8 ___vfprintf_internal_r
000478c0 g     F .text	00000310 _free_r
00053028 g     O .rwdata	00000010 main_page
0004834c g     F .text	00000010 __locale_mb_cur_max
000524c4 g     F .text	00000180 __call_exitprocs
00054c44 g     O .rwdata	00000008 easy
00056b74 g     O .bss	00000004 __mlocale_changed
00054c5c g     O .rwdata	00000004 __malloc_sbrk_base
00040244 g     F .text	0000004c _start
00056b9c g     O .bss	00000004 _alt_tick_rate
0004084c g     F .text	000000bc game_getUserInput
00042d68 g     F .text	00000064 rand
00048f08 g     F .text	00000148 __lshift
00056ba0 g     O .bss	00000004 _alt_nticks
0004fa50 g     F .text	000000fc read
0004ffd4 g     F .text	00000060 alt_sys_init
00042bb0 g     F .text	00000060 _open_r
000523ac g     F .text	00000118 __register_exitproc
00048bd0 g     F .text	000001f8 __multiply
00041330 g     F .text	00000074 lcd_print
00050504 g     F .text	00000068 altera_avalon_jtag_uart_close
00052df8 g       *ABS*	00000000 __ram_rwdata_start
00052678 g       *ABS*	00000000 __ram_rodata_start
00056d4c g     O .bss	00000028 __malloc_current_mallinfo
0004941c g     F .text	0000014c __d2b
000402b0 g     F .text	00000024 btnLed_reset_edge_capture
00050034 g     F .text	00000060 altera_avalon_jtag_uart_read_fd
00051f7c g     F .text	000000a4 alt_get_fd
00051aa4 g     F .text	00000158 alt_busy_sleep
000457cc g     F .text	00000054 _close_r
00052330 g     F .text	0000007c memcmp
000500f4 g     F .text	00000050 altera_avalon_jtag_uart_close_fd
00056e74 g       *ABS*	00000000 __alt_stack_base
00050144 g     F .text	00000054 altera_avalon_jtag_uart_ioctl_fd
00041fc0 g     F .text	000000cc _fwrite_r
00052e4c g     O .rwdata	0000008c highscores_page_items
00045678 g     F .text	00000154 __swsetup_r
0004cfac g     F .text	000008e8 .hidden __divdf3
00047570 g     F .text	00000118 __sfp
00049680 g     F .text	00000078 __copybits
0005349c g     O .rwdata	00000408 __malloc_av_
000476bc g     F .text	00000004 __sinit_lock_release
0004daec g     F .text	00000718 .hidden __muldf3
00043010 g     F .text	00000054 __sread
000403a4 g     F .text	00000034 btnLed_set_sevenseg
00051e74 g     F .text	00000108 alt_find_file
00051c80 g     F .text	000000a4 alt_dev_llist_insert
0004f778 g     F .text	00000024 __malloc_lock
00041a98 g     F .text	00000028 _fprintf_r
0004fbb0 g     F .text	000000b0 sbrk
000472c4 g     F .text	0000005c _fflush_r
00041500 g     F .text	00000114 menu_scrollPage
0004b4e0 g     F .text	000000c4 _calloc_r
0004ef8c g     F .text	000001f4 gettimeofday
00041a80 g     F .text	00000018 fopen
00056b40 g       *ABS*	00000000 __bss_start
00042a88 g     F .text	00000128 memset
000413ec g     F .text	00000068 main
00056b98 g     O .bss	00000004 alt_envp
00056b64 g     O .bss	00000004 __malloc_max_total_mem
00050094 g     F .text	00000060 altera_avalon_jtag_uart_write_fd
0004b9f0 g     F .text	00000018 __swbuf
00042d50 g     F .text	00000018 srand
000517e4 g     F .text	00000134 altera_avalon_lcd_16207_init
00043144 g     F .text	00000008 __sclose
00072000 g       *ABS*	00000000 __alt_heap_limit
0004b694 g     F .text	00000014 fclose
00045a20 g     F .text	00001688 _dtoa_r
0004227c g     F .text	0000080c _malloc_r
0004bb64 g     F .text	00000030 __ascii_wctomb
000432f8 g     F .text	00000050 time
00054c80 g     O .rwdata	00000004 alt_errno
0004808c g     F .text	000000c4 _fwalk
000417d8 g     F .text	00000084 .hidden __divsi3
0004779c g     F .text	00000124 _malloc_trim_r
00052678 g       *ABS*	00000000 __CTOR_END__
00049dbc g     F .text	000000dc strcmp
00052678 g       *ABS*	00000000 __flash_rodata_start
00040330 g     F .text	00000074 btnLed_init
00052678 g       *ABS*	00000000 __DTOR_LIST__
0004d894 g     F .text	00000088 .hidden __nedf2
0004ff9c g     F .text	00000038 alt_irq_init
0004fb4c g     F .text	00000064 alt_release_fd
00052a38 g     O .rodata	00000100 .hidden __clz_tab
00056b70 g     O .bss	00000004 _PathLocale
000522e4 g     F .text	00000014 atexit
00045618 g     F .text	00000060 _write_r
0004837c g     F .text	00000018 setlocale
00054c58 g     O .rwdata	00000004 _impure_ptr
00056b90 g     O .bss	00000004 alt_argc
000470a8 g     F .text	0000021c __sflush_r
00051d84 g     F .text	00000060 _do_dtors
00048368 g     F .text	00000008 __locale_cjk_lang
00041ae4 g     F .text	00000004 _fseek_r
00042de8 g     F .text	000001d4 __srefill_r
00040020 g       .exceptions	00000000 alt_irq_entry
000492ac g     F .text	00000064 __ulp
000476d8 g     F .text	00000018 __fp_unlock_all
00051918 g     F .text	00000060 altera_avalon_lcd_16207_write_fd
00054c6c g     O .rwdata	00000008 alt_fs_list
00052f2c g     O .rwdata	000000c4 about_page_items
00056b84 g     O .bss	00000008 alt_resettime
00040020 g       *ABS*	00000000 __ram_exceptions_start
00048394 g     F .text	0000000c localeconv
00040000 g       *ABS*	00000000 __alt_mem_onchip_memory2
00040424 g     F .text	0000003c btnLed_set_all_red_leds
00054c4c g     O .rwdata	00000008 hard
0004f180 g     F .text	00000050 alt_ic_isr_register
0004208c g     F .text	00000034 fwrite
00054c9c g       *ABS*	00000000 _edata
00040290 g     F .text	00000020 btnLed_get_edge_capture
00056e74 g       *ABS*	00000000 _end
0004b6a8 g     F .text	00000164 __fputwc
00040244 g       *ABS*	00000000 __ram_exceptions_end
0005056c g     F .text	000000f0 altera_avalon_jtag_uart_ioctl
0004f258 g     F .text	0000008c alt_ic_irq_disable
0004306c g     F .text	0000007c __swrite
00054c60 g     O .rwdata	00000004 __malloc_trim_threshold
0004835c g     F .text	0000000c __locale_msgcharset
000522f8 g     F .text	00000038 exit
00048150 g     F .text	000000c4 _fwalk_reent
00041058 g     F .text	00000030 game_set_easy_difficulty
000490b0 g     F .text	000001fc __mdiff
000403d8 g     F .text	0000004c btnLed_set_led
0004185c g     F .text	00000074 .hidden __modsi3
00054c98 g     O .rwdata	00000004 __ctype_ptr__
00072000 g       *ABS*	00000000 __alt_data_end
00040020 g     F .exceptions	00000000 alt_exception
00056b58 g     O .bss	00000008 difficulty
000476b4 g     F .text	00000004 __sfp_lock_release
00052b75 g     O .rodata	00000101 _ctype_
0004198c g     F .text	000000f4 _fopen_r
00052644 g     F .text	00000034 _exit
00051978 g     F .text	0000012c alt_alarm_start
0004bbf0 g     F .text	00000060 .hidden __muldi3
000420c0 g     F .text	000001bc __smakebuf_r
00043260 g     F .text	00000098 strlen
0004f8c0 g     F .text	00000154 open
0004d91c g     F .text	000000dc .hidden __gedf2
00054c68 g     O .rwdata	00000004 __wctomb
00049f94 g     F .text	00000018 __sprint_r
00052020 g     F .text	00000034 alt_icache_flush_all
00054c84 g     O .rwdata	00000004 alt_priority_mask
0004f1d0 g     F .text	00000088 alt_ic_irq_enable
00045540 g     F .text	0000001c __vfprintf_internal
0004bb94 g     F .text	0000005c _wctomb_r
0004e204 g     F .text	000008fc .hidden __subdf3
00048ae4 g     F .text	000000b0 __lo0bits
00054c8c g     O .rwdata	00000008 alt_alarm_list
00051d24 g     F .text	00000060 _do_ctors
0004baa4 g     F .text	000000c0 wcrtomb
0004eda4 g     F .text	000000d0 close
0004f568 g     F .text	00000084 alt_load
0004b830 g     F .text	00000080 fputwc
000476b8 g     F .text	00000004 __sinit_lock_acquire
00048858 g     F .text	00000120 __multadd
00048830 g     F .text	00000028 _Bfree



Disassembly of section .entry:

00040000 <__reset>:
#if NIOS2_ICACHE_SIZE > 0 && defined(ALT_ALLOW_CODE_AT_RESET) && (!defined(ALT_SIM_OPTIMIZE) || defined(NIOS2_ECC_PRESENT))
    /* Assume the instruction cache size is always a power of two. */
#if NIOS2_ICACHE_SIZE > 0x8000
    movhi r2, %hi(NIOS2_ICACHE_SIZE)
#else
    movui r2, NIOS2_ICACHE_SIZE
   40000:	00840014 	movui	r2,4096
#endif

0:
    initi r2
   40004:	1001483a 	initi	r2
    addi r2, r2, -NIOS2_ICACHE_LINE_SIZE
   40008:	10bff804 	addi	r2,r2,-32
    bgt r2, zero, 0b
   4000c:	00bffd16 	blt	zero,r2,40004 <__alt_data_end+0xfffce004>
 * Jump to the _start entry point in the .text section if reset code
 * is allowed or if optimizing for RTL simulation.
 */
#if defined(ALT_ALLOW_CODE_AT_RESET) || defined(ALT_SIM_OPTIMIZE)
    /* Jump to the _start entry point in the .text section. */
    movhi r1, %hi(_start)
   40010:	00400134 	movhi	at,4
    ori r1, r1, %lo(_start)
   40014:	08409114 	ori	at,at,580
    jmp r1
   40018:	0800683a 	jmp	at
   4001c:	00000000 	call	0 <__alt_mem_onchip_memory2-0x40000>

Disassembly of section .exceptions:

00040020 <alt_exception>:

#else /* ALT_EXCEPTION_STACK disabled */
        /* 
         * Reserve space on normal stack for registers about to be pushed.
         */
        addi  sp, sp, -76
   40020:	deffed04 	addi	sp,sp,-76
         * documentation for details).
         *
         * Leave a gap in the stack frame at 4(sp) for the muldiv handler to
         * store zero into.
         */
        stw   ra,  0(sp)
   40024:	dfc00015 	stw	ra,0(sp)
        stw   r1,   8(sp)
   40028:	d8400215 	stw	at,8(sp)
        stw   r2,  12(sp)
   4002c:	d8800315 	stw	r2,12(sp)
        stw   r3,  16(sp)
   40030:	d8c00415 	stw	r3,16(sp)
        stw   r4,  20(sp)
   40034:	d9000515 	stw	r4,20(sp)
        stw   r5,  24(sp)
   40038:	d9400615 	stw	r5,24(sp)
        stw   r6,  28(sp)
   4003c:	d9800715 	stw	r6,28(sp)
        stw   r7,  32(sp)
   40040:	d9c00815 	stw	r7,32(sp)
        rdctl r5, estatus   /* Read early to avoid usage stall */
   40044:	000b307a 	rdctl	r5,estatus
        stw   r8,  36(sp)
   40048:	da000915 	stw	r8,36(sp)
        stw   r9,  40(sp)
   4004c:	da400a15 	stw	r9,40(sp)
        stw   r10, 44(sp)
   40050:	da800b15 	stw	r10,44(sp)
        stw   r11, 48(sp)
   40054:	dac00c15 	stw	r11,48(sp)
        stw   r12, 52(sp)
   40058:	db000d15 	stw	r12,52(sp)
        stw   r13, 56(sp)
   4005c:	db400e15 	stw	r13,56(sp)
        stw   r14, 60(sp)
   40060:	db800f15 	stw	r14,60(sp)
        stw   r15, 64(sp)
   40064:	dbc01015 	stw	r15,64(sp)
        /*
         * ea-4 contains the address of the instruction being executed
         * when the exception occured. For interrupt exceptions, we will
         * will be re-issue the isntruction. Store it in 72(sp)
         */
        stw   r5,  68(sp)  /* estatus */
   40068:	d9401115 	stw	r5,68(sp)
        addi  r15, ea, -4  /* instruction that caused exception */
   4006c:	ebffff04 	addi	r15,ea,-4
        stw   r15,  72(sp)
   40070:	dbc01215 	stw	r15,72(sp)
#else
        /*
         * Test to see if the exception was a software exception or caused 
         * by an external interrupt, and vector accordingly.
         */
        rdctl r4, ipending
   40074:	0009313a 	rdctl	r4,ipending
        andi  r2, r5, 1
   40078:	2880004c 	andi	r2,r5,1
        beq   r2, zero, .Lnot_irq
   4007c:	10000326 	beq	r2,zero,4008c <alt_exception+0x6c>
        beq   r4, zero, .Lnot_irq
   40080:	20000226 	beq	r4,zero,4008c <alt_exception+0x6c>
        /*
         * Now that all necessary registers have been preserved, call 
         * alt_irq_handler() to process the interrupts.
         */

        call alt_irq_handler
   40084:	00400fc0 	call	400fc <alt_irq_handler>

        .section .exceptions.irqreturn, "xa"

        br    .Lexception_exit
   40088:	00000706 	br	400a8 <alt_exception+0x88>
         * upon completion, so we write ea (address of instruction *after*
         * the one where the exception occured) into 72(sp). The actual
         * instruction that caused the exception is written in r2, which these
         * handlers will utilize.
         */
        stw ea, 72(sp) /* EA is PC+4 so will skip over instruction causing exception */
   4008c:	df401215 	stw	ea,72(sp)
.Lunknown_16bit:
        addi.n r4, r4, 2 /* Need PC+2 to skip over instruction causing exception */
        stw r4, 72(sp)

#else /* CDX is not Enabled and all instructions are 32bits */
        ldw r2, -4(ea) /* Instruction value that caused exception */
   40090:	e8bfff17 	ldw	r2,-4(ea)
         * debugger is present) or go into an infinite loop since the
         * handling behavior is undefined; in that case we will not return here.
         */

        /* Load exception-causing address as first argument (r4) */
        addi   r4, ea, -4
   40094:	e93fff04 	addi	r4,ea,-4

        /* Call the instruction-exception entry */
        call   alt_instruction_exception_entry
   40098:	00401d00 	call	401d0 <alt_instruction_exception_entry>
         * instruction
         *
         * Return code was 0: Skip. The instruction after the exception is
         * already stored in 72(sp).
         */
        bne   r2, r0, .Lexception_exit
   4009c:	1000021e 	bne	r2,zero,400a8 <alt_exception+0x88>

        /*
         * Otherwise, modify 72(sp) to re-issue the instruction that caused the
         * exception.
         */
        addi  r15, ea, -4  /* instruction that caused exception */
   400a0:	ebffff04 	addi	r15,ea,-4
        stw   r15,  72(sp)
   400a4:	dbc01215 	stw	r15,72(sp)
        /* 
         * Restore the saved registers, so that all general purpose registers 
         * have been restored to their state at the time the interrupt occured.
         */

        ldw   r5,  68(sp)
   400a8:	d9401117 	ldw	r5,68(sp)
        ldw   ea,  72(sp)  /* This becomes the PC once eret is executed */
   400ac:	df401217 	ldw	ea,72(sp)
        ldw   ra,   0(sp)
   400b0:	dfc00017 	ldw	ra,0(sp)

        wrctl estatus, r5
   400b4:	2801707a 	wrctl	estatus,r5

        ldw   r1,   8(sp)
   400b8:	d8400217 	ldw	at,8(sp)
        ldw   r2,  12(sp)
   400bc:	d8800317 	ldw	r2,12(sp)
        ldw   r3,  16(sp)
   400c0:	d8c00417 	ldw	r3,16(sp)
        ldw   r4,  20(sp)
   400c4:	d9000517 	ldw	r4,20(sp)
        ldw   r5,  24(sp)
   400c8:	d9400617 	ldw	r5,24(sp)
        ldw   r6,  28(sp)
   400cc:	d9800717 	ldw	r6,28(sp)
        ldw   r7,  32(sp)
   400d0:	d9c00817 	ldw	r7,32(sp)

#if defined(ALT_EXCEPTION_STACK) && defined(ALT_STACK_CHECK)
        ldw   et, %gprel(alt_exception_old_stack_limit)(gp)
#endif

        ldw   r8,  36(sp)
   400d4:	da000917 	ldw	r8,36(sp)
        ldw   r9,  40(sp)
   400d8:	da400a17 	ldw	r9,40(sp)
        ldw   r10, 44(sp)
   400dc:	da800b17 	ldw	r10,44(sp)
        ldw   r11, 48(sp)
   400e0:	dac00c17 	ldw	r11,48(sp)
        ldw   r12, 52(sp)
   400e4:	db000d17 	ldw	r12,52(sp)
        ldw   r13, 56(sp)
   400e8:	db400e17 	ldw	r13,56(sp)
        ldw   r14, 60(sp)
   400ec:	db800f17 	ldw	r14,60(sp)
        ldw   r15, 64(sp)
   400f0:	dbc01017 	ldw	r15,64(sp)
        stw   et, %gprel(alt_stack_limit_value)(gp)
        stw   zero, %gprel(alt_exception_old_stack_limit)(gp)
#endif /* ALT_STACK_CHECK */
        ldw   sp,  76(sp)
#else /* ALT_EXCEPTION_STACK disabled */
        addi  sp, sp, 76
   400f4:	dec01304 	addi	sp,sp,76

        /*
         * Return to the interrupted instruction.
         */

        eret
   400f8:	ef80083a 	eret

000400fc <alt_irq_handler>:
 * instruction is present if the macro ALT_CI_INTERRUPT_VECTOR defined.
 */

void alt_irq_handler (void) __attribute__ ((section (".exceptions")));
void alt_irq_handler (void)
{
   400fc:	defff904 	addi	sp,sp,-28
   40100:	dfc00615 	stw	ra,24(sp)
   40104:	df000515 	stw	fp,20(sp)
   40108:	df000504 	addi	fp,sp,20
  
  /*
   * Notify the operating system that we are at interrupt level.
   */ 
  
  ALT_OS_INT_ENTER();
   4010c:	0001883a 	nop
#ifndef NIOS2_EIC_PRESENT
static ALT_INLINE alt_u32 ALT_ALWAYS_INLINE alt_irq_pending (void)
{
  alt_u32 active;

  NIOS2_READ_IPENDING (active);
   40110:	0005313a 	rdctl	r2,ipending
   40114:	e0bffe15 	stw	r2,-8(fp)

  return active;
   40118:	e0bffe17 	ldw	r2,-8(fp)
   * Consider the case where the high priority interupt is asserted during
   * the interrupt entry sequence for a lower priority interrupt to see why
   * this is the case.
   */

  active = alt_irq_pending ();
   4011c:	e0bffb15 	stw	r2,-20(fp)

  do
  {
    i = 0;
   40120:	e03ffd15 	stw	zero,-12(fp)
    mask = 1;
   40124:	00800044 	movi	r2,1
   40128:	e0bffc15 	stw	r2,-16(fp)
     * called to clear the interrupt condition.
     */

    do
    {
      if (active & mask)
   4012c:	e0fffb17 	ldw	r3,-20(fp)
   40130:	e0bffc17 	ldw	r2,-16(fp)
   40134:	1884703a 	and	r2,r3,r2
   40138:	10001426 	beq	r2,zero,4018c <alt_irq_handler+0x90>
      { 
#ifdef ALT_ENHANCED_INTERRUPT_API_PRESENT
        alt_irq[i].handler(alt_irq[i].context); 
   4013c:	00800174 	movhi	r2,5
   40140:	109b5d04 	addi	r2,r2,28020
   40144:	e0fffd17 	ldw	r3,-12(fp)
   40148:	180690fa 	slli	r3,r3,3
   4014c:	10c5883a 	add	r2,r2,r3
   40150:	10c00017 	ldw	r3,0(r2)
   40154:	00800174 	movhi	r2,5
   40158:	109b5d04 	addi	r2,r2,28020
   4015c:	e13ffd17 	ldw	r4,-12(fp)
   40160:	200890fa 	slli	r4,r4,3
   40164:	1105883a 	add	r2,r2,r4
   40168:	10800104 	addi	r2,r2,4
   4016c:	10800017 	ldw	r2,0(r2)
   40170:	1009883a 	mov	r4,r2
   40174:	183ee83a 	callr	r3
#else
        alt_irq[i].handler(alt_irq[i].context, i); 
#endif
        break;
   40178:	0001883a 	nop
#ifndef NIOS2_EIC_PRESENT
static ALT_INLINE alt_u32 ALT_ALWAYS_INLINE alt_irq_pending (void)
{
  alt_u32 active;

  NIOS2_READ_IPENDING (active);
   4017c:	0005313a 	rdctl	r2,ipending
   40180:	e0bfff15 	stw	r2,-4(fp)

  return active;
   40184:	e0bfff17 	ldw	r2,-4(fp)
   40188:	00000706 	br	401a8 <alt_irq_handler+0xac>
      }
      mask <<= 1;
   4018c:	e0bffc17 	ldw	r2,-16(fp)
   40190:	1085883a 	add	r2,r2,r2
   40194:	e0bffc15 	stw	r2,-16(fp)
      i++;
   40198:	e0bffd17 	ldw	r2,-12(fp)
   4019c:	10800044 	addi	r2,r2,1
   401a0:	e0bffd15 	stw	r2,-12(fp)

    } while (1);
   401a4:	003fe106 	br	4012c <__alt_data_end+0xfffce12c>

    active = alt_irq_pending ();
   401a8:	e0bffb15 	stw	r2,-20(fp)
    
  } while (active);
   401ac:	e0bffb17 	ldw	r2,-20(fp)
   401b0:	103fdb1e 	bne	r2,zero,40120 <__alt_data_end+0xfffce120>

  /*
   * Notify the operating system that interrupt processing is complete.
   */ 

  ALT_OS_INT_EXIT();
   401b4:	0001883a 	nop
}
   401b8:	0001883a 	nop
   401bc:	e037883a 	mov	sp,fp
   401c0:	dfc00117 	ldw	ra,4(sp)
   401c4:	df000017 	ldw	fp,0(sp)
   401c8:	dec00204 	addi	sp,sp,8
   401cc:	f800283a 	ret

000401d0 <alt_instruction_exception_entry>:
 * that handler if it has been registered. Absent a handler, it will
 * break break or hang as discussed below.
 */
int 
alt_instruction_exception_entry (alt_u32 exception_pc)
{
   401d0:	defffb04 	addi	sp,sp,-20
   401d4:	dfc00415 	stw	ra,16(sp)
   401d8:	df000315 	stw	fp,12(sp)
   401dc:	df000304 	addi	fp,sp,12
   401e0:	e13fff15 	stw	r4,-4(fp)
 * NIOS2_EXCEPTION_CAUSE_NOT_PRESENT. Your handling routine should
 * check the validity of the cause argument before proceeding.
 */
#ifdef NIOS2_HAS_EXTRA_EXCEPTION_INFO
  /* Get exception cause & "badaddr" */
  NIOS2_READ_EXCEPTION(cause);
   401e4:	000531fa 	rdctl	r2,exception
   401e8:	e0bffd15 	stw	r2,-12(fp)
  cause = ( (cause & NIOS2_EXCEPTION_REG_CAUSE_MASK) >>
   401ec:	e0bffd17 	ldw	r2,-12(fp)
   401f0:	10801f0c 	andi	r2,r2,124
   401f4:	1004d0ba 	srli	r2,r2,2
   401f8:	e0bffd15 	stw	r2,-12(fp)
              NIOS2_EXCEPTION_REG_CAUSE_OFST );

  NIOS2_READ_BADADDR(badaddr);
   401fc:	0005333a 	rdctl	r2,badaddr
   40200:	e0bffe15 	stw	r2,-8(fp)
#else
  cause = NIOS2_EXCEPTION_CAUSE_NOT_PRESENT;
  badaddr = 0;
#endif /* NIOS2_HAS_EXTRA_EXCEPTION_INFO */

  if(alt_instruction_exception_handler) {
   40204:	d0a7d817 	ldw	r2,-24736(gp)
   40208:	10000726 	beq	r2,zero,40228 <alt_instruction_exception_entry+0x58>
     * Call handler. Its return value indicates whether the exception-causing
     * instruction should be re-issued. The code that called us,
     * alt_eceptions_entry.S, will look at this value and adjust the ea
     * register as necessary
     */
    return alt_instruction_exception_handler(cause, exception_pc, badaddr);
   4020c:	d0a7d817 	ldw	r2,-24736(gp)
   40210:	e0fffd17 	ldw	r3,-12(fp)
   40214:	e1bffe17 	ldw	r6,-8(fp)
   40218:	e17fff17 	ldw	r5,-4(fp)
   4021c:	1809883a 	mov	r4,r3
   40220:	103ee83a 	callr	r2
   40224:	00000206 	br	40230 <alt_instruction_exception_entry+0x60>
   *    (a peripheral which negates its interrupt output before its
   *    interrupt handler has been executed will cause spurious interrupts)
   */
  else {
#ifdef NIOS2_HAS_DEBUG_STUB
    NIOS2_BREAK();
   40228:	003da03a 	break	0
      ;
#endif /* NIOS2_HAS_DEBUG_STUB */
  }

  /* We should not get here. Remove compiler warning. */
  return NIOS2_EXCEPTION_RETURN_REISSUE_INST;
   4022c:	0005883a 	mov	r2,zero
}
   40230:	e037883a 	mov	sp,fp
   40234:	dfc00117 	ldw	ra,4(sp)
   40238:	df000017 	ldw	fp,0(sp)
   4023c:	dec00204 	addi	sp,sp,8
   40240:	f800283a 	ret

Disassembly of section .text:

00040244 <_start>:

    /* Assume the data cache size is always a power of two. */
#if NIOS2_DCACHE_SIZE > 0x8000
    movhi r2, %hi(NIOS2_DCACHE_SIZE)
#else
    movui r2, NIOS2_DCACHE_SIZE
   40244:	00820014 	movui	r2,2048
#endif

0:
    initd 0(r2)
   40248:	10000033 	initd	0(r2)
#ifdef NIOS2_ECC_PRESENT
    addi r2, r2, -4
#else
    addi r2, r2, -NIOS2_DCACHE_LINE_SIZE
   4024c:	10bff804 	addi	r2,r2,-32
#endif
    bgt r2, zero, 0b
   40250:	00bffd16 	blt	zero,r2,40248 <__alt_data_end+0xfffce248>

    /*
     * Now that the caches are initialized, set up the stack pointer and global pointer.
     * The values provided by the linker are assumed to be correctly aligned.
     */
    movhi sp, %hi(__alt_stack_pointer)
   40254:	06c001f4 	movhi	sp,7
    ori sp, sp, %lo(__alt_stack_pointer)
   40258:	dec80014 	ori	sp,sp,8192
    movhi gp, %hi(_gp)
   4025c:	06800174 	movhi	gp,5
    ori gp, gp, %lo(_gp)
   40260:	d6b31114 	ori	gp,gp,52292
 */
#ifndef ALT_SIM_OPTIMIZE
    /* Log that the BSS is about to be cleared. */
    ALT_LOG_PUTS(alt_log_msg_bss)

    movhi r2, %hi(__bss_start)
   40264:	00800174 	movhi	r2,5
    ori r2, r2, %lo(__bss_start)
   40268:	109ad014 	ori	r2,r2,27456

    movhi r3, %hi(__bss_end)
   4026c:	00c00174 	movhi	r3,5
    ori r3, r3, %lo(__bss_end)
   40270:	18db9d14 	ori	r3,r3,28276

    beq r2, r3, 1f
   40274:	10c00326 	beq	r2,r3,40284 <_start+0x40>

0:
    stw zero, (r2)
   40278:	10000015 	stw	zero,0(r2)
    addi r2, r2, 4
   4027c:	10800104 	addi	r2,r2,4
    bltu r2, r3, 0b
   40280:	10fffd36 	bltu	r2,r3,40278 <__alt_data_end+0xfffce278>
     * section aren't defined until alt_load() has been called).
     */
    mov   et, zero
#endif

    call alt_load
   40284:	004f5680 	call	4f568 <alt_load>

    /* Log that alt_main is about to be called. */
    ALT_LOG_PUTS(alt_log_msg_alt_main)

    /* Call the C entry point. It should never return. */
    call alt_main
   40288:	004f6fc0 	call	4f6fc <alt_main>

0004028c <alt_after_alt_main>:

    /* Wait in infinite loop in case alt_main does return. */
alt_after_alt_main:
    br alt_after_alt_main
   4028c:	003fff06 	br	4028c <__alt_data_end+0xfffce28c>

00040290 <btnLed_get_edge_capture>:

// A variable to hold the value of the button pio edge capture register
volatile int edge_capture;

/* Function to get the value of the edge_capture variable */
int btnLed_get_edge_capture(void) {
   40290:	deffff04 	addi	sp,sp,-4
   40294:	df000015 	stw	fp,0(sp)
   40298:	d839883a 	mov	fp,sp
    return edge_capture;
   4029c:	d0a7c017 	ldw	r2,-24832(gp)
}
   402a0:	e037883a 	mov	sp,fp
   402a4:	df000017 	ldw	fp,0(sp)
   402a8:	dec00104 	addi	sp,sp,4
   402ac:	f800283a 	ret

000402b0 <btnLed_reset_edge_capture>:

/* Function to set the value of the edge_capture variable */
void btnLed_reset_edge_capture() {
   402b0:	deffff04 	addi	sp,sp,-4
   402b4:	df000015 	stw	fp,0(sp)
   402b8:	d839883a 	mov	fp,sp
    edge_capture = 0;
   402bc:	d027c015 	stw	zero,-24832(gp)
}
   402c0:	0001883a 	nop
   402c4:	e037883a 	mov	sp,fp
   402c8:	df000017 	ldw	fp,0(sp)
   402cc:	dec00104 	addi	sp,sp,4
   402d0:	f800283a 	ret

000402d4 <btnLed_handle_button_interrupts>:

static void btnLed_handle_button_interrupts(void* context) {
   402d4:	defffd04 	addi	sp,sp,-12
   402d8:	df000215 	stw	fp,8(sp)
   402dc:	df000204 	addi	fp,sp,8
   402e0:	e13fff15 	stw	r4,-4(fp)
    /* Cast context to edge_capture's type. It is important that this be
     * declared volatile to avoid unwanted compiler optimization.
     */
    volatile int* edge_capture_ptr = (volatile int*) context;
   402e4:	e0bfff17 	ldw	r2,-4(fp)
   402e8:	e0bffe15 	stw	r2,-8(fp)
    /* Store the value in the Button's edge capture register in *context. */
    *edge_capture_ptr = IORD_ALTERA_AVALON_PIO_EDGE_CAP(BUTTON_PIO_BASE);
   402ec:	00800234 	movhi	r2,8
   402f0:	10840704 	addi	r2,r2,4124
   402f4:	10c00037 	ldwio	r3,0(r2)
   402f8:	e0bffe17 	ldw	r2,-8(fp)
   402fc:	10c00015 	stw	r3,0(r2)
    /* Reset the Button's edge capture register. */
    IOWR_ALTERA_AVALON_PIO_EDGE_CAP(BUTTON_PIO_BASE, 0);
   40300:	0007883a 	mov	r3,zero
   40304:	00800234 	movhi	r2,8
   40308:	10840704 	addi	r2,r2,4124
   4030c:	10c00035 	stwio	r3,0(r2)
    /*
     * Read the PIO to delay ISR exit. This is done to prevent a spurious
     * interrupt in systems with high processor -> pio latency and fast
     * interrupts.
     */
    IORD_ALTERA_AVALON_PIO_EDGE_CAP(BUTTON_PIO_BASE);
   40310:	00800234 	movhi	r2,8
   40314:	10840704 	addi	r2,r2,4124
   40318:	10800037 	ldwio	r2,0(r2)
}
   4031c:	0001883a 	nop
   40320:	e037883a 	mov	sp,fp
   40324:	df000017 	ldw	fp,0(sp)
   40328:	dec00104 	addi	sp,sp,4
   4032c:	f800283a 	ret

00040330 <btnLed_init>:


/* Initialize the button_pio. */
void btnLed_init()
{
   40330:	defffc04 	addi	sp,sp,-16
   40334:	dfc00315 	stw	ra,12(sp)
   40338:	df000215 	stw	fp,8(sp)
   4033c:	df000204 	addi	fp,sp,8
    /* Recast the edge_capture pointer to match the alt_irq_register() function
     * prototype. */
    void* edge_capture_ptr = (void*) &edge_capture;
   40340:	d0a7c004 	addi	r2,gp,-24832
   40344:	e0bfff15 	stw	r2,-4(fp)
    /* Enable all 4 button interrupts. */
    IOWR_ALTERA_AVALON_PIO_IRQ_MASK(BUTTON_PIO_BASE, 0xf);
   40348:	00c003c4 	movi	r3,15
   4034c:	00800234 	movhi	r2,8
   40350:	10840604 	addi	r2,r2,4120
   40354:	10c00035 	stwio	r3,0(r2)
    /* Reset the edge capture register. */
    IOWR_ALTERA_AVALON_PIO_EDGE_CAP(BUTTON_PIO_BASE, 0x0);
   40358:	0007883a 	mov	r3,zero
   4035c:	00800234 	movhi	r2,8
   40360:	10840704 	addi	r2,r2,4124
   40364:	10c00035 	stwio	r3,0(r2)
    /* Register the interrupt handler. */

    alt_ic_isr_register(BUTTON_PIO_IRQ_INTERRUPT_CONTROLLER_ID, BUTTON_PIO_IRQ,
   40368:	d8000015 	stw	zero,0(sp)
   4036c:	e1ffff17 	ldw	r7,-4(fp)
   40370:	01800134 	movhi	r6,4
   40374:	3180b504 	addi	r6,r6,724
   40378:	01400044 	movi	r5,1
   4037c:	0009883a 	mov	r4,zero
   40380:	004f1800 	call	4f180 <alt_ic_isr_register>
      btnLed_handle_button_interrupts, edge_capture_ptr, 0x0);
    
    btnLed_set_sevenseg(0);
   40384:	0009883a 	mov	r4,zero
   40388:	00403a40 	call	403a4 <btnLed_set_sevenseg>
}
   4038c:	0001883a 	nop
   40390:	e037883a 	mov	sp,fp
   40394:	dfc00117 	ldw	ra,4(sp)
   40398:	df000017 	ldw	fp,0(sp)
   4039c:	dec00204 	addi	sp,sp,8
   403a0:	f800283a 	ret

000403a4 <btnLed_set_sevenseg>:

/* Output a value on the 7-segment display (hex) */
void btnLed_set_sevenseg(int value) {
   403a4:	defffe04 	addi	sp,sp,-8
   403a8:	df000115 	stw	fp,4(sp)
   403ac:	df000104 	addi	fp,sp,4
   403b0:	e13fff15 	stw	r4,-4(fp)
  IOWR_ALTERA_AVALON_PIO_DATA(SEVEN_SEG_PIO_BASE, value);
   403b4:	00800234 	movhi	r2,8
   403b8:	10840004 	addi	r2,r2,4096
   403bc:	e0ffff17 	ldw	r3,-4(fp)
   403c0:	10c00035 	stwio	r3,0(r2)
}
   403c4:	0001883a 	nop
   403c8:	e037883a 	mov	sp,fp
   403cc:	df000017 	ldw	fp,0(sp)
   403d0:	dec00104 	addi	sp,sp,4
   403d4:	f800283a 	ret

000403d8 <btnLed_set_led>:

void btnLed_set_led(int led_nr) {
   403d8:	defffe04 	addi	sp,sp,-8
   403dc:	df000115 	stw	fp,4(sp)
   403e0:	df000104 	addi	fp,sp,4
   403e4:	e13fff15 	stw	r4,-4(fp)
  leds_status |= 1 << led_nr;
   403e8:	00c00044 	movi	r3,1
   403ec:	e0bfff17 	ldw	r2,-4(fp)
   403f0:	1886983a 	sll	r3,r3,r2
   403f4:	d0a7bf17 	ldw	r2,-24836(gp)
   403f8:	1884b03a 	or	r2,r3,r2
   403fc:	d0a7bf15 	stw	r2,-24836(gp)
  IOWR_ALTERA_AVALON_PIO_DATA(LED_PIO_BASE, leds_status);
   40400:	d0e7bf17 	ldw	r3,-24836(gp)
   40404:	00800234 	movhi	r2,8
   40408:	10840804 	addi	r2,r2,4128
   4040c:	10c00035 	stwio	r3,0(r2)
}
   40410:	0001883a 	nop
   40414:	e037883a 	mov	sp,fp
   40418:	df000017 	ldw	fp,0(sp)
   4041c:	dec00104 	addi	sp,sp,4
   40420:	f800283a 	ret

00040424 <btnLed_set_all_red_leds>:

void btnLed_set_all_red_leds() {
   40424:	deffff04 	addi	sp,sp,-4
   40428:	df000015 	stw	fp,0(sp)
   4042c:	d839883a 	mov	fp,sp
  leds_status = 0x1FFFF00;
   40430:	00808034 	movhi	r2,512
   40434:	10bfc004 	addi	r2,r2,-256
   40438:	d0a7bf15 	stw	r2,-24836(gp)
  IOWR_ALTERA_AVALON_PIO_DATA(LED_PIO_BASE, leds_status);
   4043c:	d0e7bf17 	ldw	r3,-24836(gp)
   40440:	00800234 	movhi	r2,8
   40444:	10840804 	addi	r2,r2,4128
   40448:	10c00035 	stwio	r3,0(r2)
}
   4044c:	0001883a 	nop
   40450:	e037883a 	mov	sp,fp
   40454:	df000017 	ldw	fp,0(sp)
   40458:	dec00104 	addi	sp,sp,4
   4045c:	f800283a 	ret

00040460 <btnLed_clear_all_leds>:

void btnLed_clear_all_leds() {
   40460:	deffff04 	addi	sp,sp,-4
   40464:	df000015 	stw	fp,0(sp)
   40468:	d839883a 	mov	fp,sp
  leds_status = 0;
   4046c:	d027bf15 	stw	zero,-24836(gp)
  IOWR_ALTERA_AVALON_PIO_DATA(LED_PIO_BASE, leds_status);
   40470:	d0e7bf17 	ldw	r3,-24836(gp)
   40474:	00800234 	movhi	r2,8
   40478:	10840804 	addi	r2,r2,4128
   4047c:	10c00035 	stwio	r3,0(r2)
}
   40480:	0001883a 	nop
   40484:	e037883a 	mov	sp,fp
   40488:	df000017 	ldw	fp,0(sp)
   4048c:	dec00104 	addi	sp,sp,4
   40490:	f800283a 	ret

00040494 <fsm_mainMenu>:
#include "fsm.h"


STATE state = MAIN_MENU;

static void fsm_mainMenu() {
   40494:	defffd04 	addi	sp,sp,-12
   40498:	dfc00215 	stw	ra,8(sp)
   4049c:	df000115 	stw	fp,4(sp)
   404a0:	df000104 	addi	fp,sp,4
  menu_displayPage(main_page);
   404a4:	00800174 	movhi	r2,5
   404a8:	108c0a04 	addi	r2,r2,12328
   404ac:	11000017 	ldw	r4,0(r2)
   404b0:	11400117 	ldw	r5,4(r2)
   404b4:	11800217 	ldw	r6,8(r2)
   404b8:	11c00317 	ldw	r7,12(r2)
   404bc:	00414540 	call	41454 <menu_displayPage>
  USERINPUT input = game_getUserInput();
   404c0:	004084c0 	call	4084c <game_getUserInput>
   404c4:	e0bfff15 	stw	r2,-4(fp)
  switch(input) {
   404c8:	e0bfff17 	ldw	r2,-4(fp)
   404cc:	10c000a0 	cmpeqi	r3,r2,2
   404d0:	18000f1e 	bne	r3,zero,40510 <fsm_mainMenu+0x7c>
   404d4:	10c000e8 	cmpgeui	r3,r2,3
   404d8:	1800031e 	bne	r3,zero,404e8 <fsm_mainMenu+0x54>
   404dc:	10800060 	cmpeqi	r2,r2,1
   404e0:	1000061e 	bne	r2,zero,404fc <fsm_mainMenu+0x68>
      break;
    case BTN_GREEN_ENTER:
      state = main_page.items[main_page.lcd_line0_index].enter_state;
      break;
  }
}
   404e4:	00002506 	br	4057c <fsm_mainMenu+0xe8>
STATE state = MAIN_MENU;

static void fsm_mainMenu() {
  menu_displayPage(main_page);
  USERINPUT input = game_getUserInput();
  switch(input) {
   404e8:	10c000e0 	cmpeqi	r3,r2,3
   404ec:	18000d1e 	bne	r3,zero,40524 <fsm_mainMenu+0x90>
   404f0:	10800120 	cmpeqi	r2,r2,4
   404f4:	1000161e 	bne	r2,zero,40550 <fsm_mainMenu+0xbc>
      break;
    case BTN_GREEN_ENTER:
      state = main_page.items[main_page.lcd_line0_index].enter_state;
      break;
  }
}
   404f8:	00002006 	br	4057c <fsm_mainMenu+0xe8>
static void fsm_mainMenu() {
  menu_displayPage(main_page);
  USERINPUT input = game_getUserInput();
  switch(input) {
    case BTN_WHITE_UP:
      menu_scrollPage(&main_page, BTN_WHITE_UP);
   404fc:	01400044 	movi	r5,1
   40500:	01000174 	movhi	r4,5
   40504:	210c0a04 	addi	r4,r4,12328
   40508:	00415000 	call	41500 <menu_scrollPage>
      break;
   4050c:	00001b06 	br	4057c <fsm_mainMenu+0xe8>
    case BTN_YELLOW_DOWN:
      menu_scrollPage(&main_page, BTN_YELLOW_DOWN);
   40510:	01400084 	movi	r5,2
   40514:	01000174 	movhi	r4,5
   40518:	210c0a04 	addi	r4,r4,12328
   4051c:	00415000 	call	41500 <menu_scrollPage>
      break;
   40520:	00001606 	br	4057c <fsm_mainMenu+0xe8>
    case BTN_RED_BACK:
      state = main_page.items[main_page.lcd_line0_index].exit_state;
   40524:	00800174 	movhi	r2,5
   40528:	108c0a04 	addi	r2,r2,12328
   4052c:	10c00117 	ldw	r3,4(r2)
   40530:	00800174 	movhi	r2,5
   40534:	108c0a04 	addi	r2,r2,12328
   40538:	10800217 	ldw	r2,8(r2)
   4053c:	10800724 	muli	r2,r2,28
   40540:	1885883a 	add	r2,r3,r2
   40544:	10800517 	ldw	r2,20(r2)
   40548:	d0a7c115 	stw	r2,-24828(gp)
      break;
   4054c:	00000b06 	br	4057c <fsm_mainMenu+0xe8>
    case BTN_GREEN_ENTER:
      state = main_page.items[main_page.lcd_line0_index].enter_state;
   40550:	00800174 	movhi	r2,5
   40554:	108c0a04 	addi	r2,r2,12328
   40558:	10c00117 	ldw	r3,4(r2)
   4055c:	00800174 	movhi	r2,5
   40560:	108c0a04 	addi	r2,r2,12328
   40564:	10800217 	ldw	r2,8(r2)
   40568:	10800724 	muli	r2,r2,28
   4056c:	1885883a 	add	r2,r3,r2
   40570:	10800617 	ldw	r2,24(r2)
   40574:	d0a7c115 	stw	r2,-24828(gp)
      break;
   40578:	0001883a 	nop
  }
}
   4057c:	0001883a 	nop
   40580:	e037883a 	mov	sp,fp
   40584:	dfc00117 	ldw	ra,4(sp)
   40588:	df000017 	ldw	fp,0(sp)
   4058c:	dec00204 	addi	sp,sp,8
   40590:	f800283a 	ret

00040594 <fsm_game>:

static void fsm_game() {
   40594:	defffe04 	addi	sp,sp,-8
   40598:	dfc00115 	stw	ra,4(sp)
   4059c:	df000015 	stw	fp,0(sp)
   405a0:	d839883a 	mov	fp,sp
  game_play();
   405a4:	0040fb40 	call	40fb4 <game_play>
  state = MAIN_MENU;
   405a8:	d027c115 	stw	zero,-24828(gp)
}
   405ac:	0001883a 	nop
   405b0:	e037883a 	mov	sp,fp
   405b4:	dfc00117 	ldw	ra,4(sp)
   405b8:	df000017 	ldw	fp,0(sp)
   405bc:	dec00204 	addi	sp,sp,8
   405c0:	f800283a 	ret

000405c4 <fsm_settings>:

static void fsm_settings() {
   405c4:	defffd04 	addi	sp,sp,-12
   405c8:	dfc00215 	stw	ra,8(sp)
   405cc:	df000115 	stw	fp,4(sp)
   405d0:	df000104 	addi	fp,sp,4
  menu_displayPage(settings_page);
   405d4:	00800174 	movhi	r2,5
   405d8:	108c1204 	addi	r2,r2,12360
   405dc:	11000017 	ldw	r4,0(r2)
   405e0:	11400117 	ldw	r5,4(r2)
   405e4:	11800217 	ldw	r6,8(r2)
   405e8:	11c00317 	ldw	r7,12(r2)
   405ec:	00414540 	call	41454 <menu_displayPage>
  USERINPUT input = game_getUserInput();
   405f0:	004084c0 	call	4084c <game_getUserInput>
   405f4:	e0bfff15 	stw	r2,-4(fp)
  switch(input) {
   405f8:	e0bfff17 	ldw	r2,-4(fp)
   405fc:	10c000a0 	cmpeqi	r3,r2,2
   40600:	18000f1e 	bne	r3,zero,40640 <fsm_settings+0x7c>
   40604:	10c000e8 	cmpgeui	r3,r2,3
   40608:	1800031e 	bne	r3,zero,40618 <fsm_settings+0x54>
   4060c:	10800060 	cmpeqi	r2,r2,1
   40610:	1000061e 	bne	r2,zero,4062c <fsm_settings+0x68>
      break;
    case BTN_GREEN_ENTER:
      settings_page.items[settings_page.lcd_line0_index].function();
      break;
  }
}
   40614:	00002506 	br	406ac <fsm_settings+0xe8>
}

static void fsm_settings() {
  menu_displayPage(settings_page);
  USERINPUT input = game_getUserInput();
  switch(input) {
   40618:	10c000e0 	cmpeqi	r3,r2,3
   4061c:	18000d1e 	bne	r3,zero,40654 <fsm_settings+0x90>
   40620:	10800120 	cmpeqi	r2,r2,4
   40624:	1000161e 	bne	r2,zero,40680 <fsm_settings+0xbc>
      break;
    case BTN_GREEN_ENTER:
      settings_page.items[settings_page.lcd_line0_index].function();
      break;
  }
}
   40628:	00002006 	br	406ac <fsm_settings+0xe8>
static void fsm_settings() {
  menu_displayPage(settings_page);
  USERINPUT input = game_getUserInput();
  switch(input) {
    case BTN_WHITE_UP:
      menu_scrollPage(&settings_page, BTN_WHITE_UP);
   4062c:	01400044 	movi	r5,1
   40630:	01000174 	movhi	r4,5
   40634:	210c1204 	addi	r4,r4,12360
   40638:	00415000 	call	41500 <menu_scrollPage>
      break;
   4063c:	00001b06 	br	406ac <fsm_settings+0xe8>
    case BTN_YELLOW_DOWN:
      menu_scrollPage(&settings_page, BTN_YELLOW_DOWN);
   40640:	01400084 	movi	r5,2
   40644:	01000174 	movhi	r4,5
   40648:	210c1204 	addi	r4,r4,12360
   4064c:	00415000 	call	41500 <menu_scrollPage>
      break;
   40650:	00001606 	br	406ac <fsm_settings+0xe8>
    case BTN_RED_BACK:
      state = settings_page.items[settings_page.lcd_line0_index].exit_state;
   40654:	00800174 	movhi	r2,5
   40658:	108c1204 	addi	r2,r2,12360
   4065c:	10c00117 	ldw	r3,4(r2)
   40660:	00800174 	movhi	r2,5
   40664:	108c1204 	addi	r2,r2,12360
   40668:	10800217 	ldw	r2,8(r2)
   4066c:	10800724 	muli	r2,r2,28
   40670:	1885883a 	add	r2,r3,r2
   40674:	10800517 	ldw	r2,20(r2)
   40678:	d0a7c115 	stw	r2,-24828(gp)
      break;
   4067c:	00000b06 	br	406ac <fsm_settings+0xe8>
    case BTN_GREEN_ENTER:
      settings_page.items[settings_page.lcd_line0_index].function();
   40680:	00800174 	movhi	r2,5
   40684:	108c1204 	addi	r2,r2,12360
   40688:	10c00117 	ldw	r3,4(r2)
   4068c:	00800174 	movhi	r2,5
   40690:	108c1204 	addi	r2,r2,12360
   40694:	10800217 	ldw	r2,8(r2)
   40698:	10800724 	muli	r2,r2,28
   4069c:	1885883a 	add	r2,r3,r2
   406a0:	10800417 	ldw	r2,16(r2)
   406a4:	103ee83a 	callr	r2
      break;
   406a8:	0001883a 	nop
  }
}
   406ac:	0001883a 	nop
   406b0:	e037883a 	mov	sp,fp
   406b4:	dfc00117 	ldw	ra,4(sp)
   406b8:	df000017 	ldw	fp,0(sp)
   406bc:	dec00204 	addi	sp,sp,8
   406c0:	f800283a 	ret

000406c4 <fsm_highscores>:

static void fsm_highscores() {
   406c4:	defffd04 	addi	sp,sp,-12
   406c8:	dfc00215 	stw	ra,8(sp)
   406cc:	df000115 	stw	fp,4(sp)
   406d0:	df000104 	addi	fp,sp,4
  menu_displayPage(highscores_page);
   406d4:	00800174 	movhi	r2,5
   406d8:	108c0e04 	addi	r2,r2,12344
   406dc:	11000017 	ldw	r4,0(r2)
   406e0:	11400117 	ldw	r5,4(r2)
   406e4:	11800217 	ldw	r6,8(r2)
   406e8:	11c00317 	ldw	r7,12(r2)
   406ec:	00414540 	call	41454 <menu_displayPage>
  highscore_display(highscores_page);
   406f0:	00800174 	movhi	r2,5
   406f4:	108c0e04 	addi	r2,r2,12344
   406f8:	11000017 	ldw	r4,0(r2)
   406fc:	11400117 	ldw	r5,4(r2)
   40700:	11800217 	ldw	r6,8(r2)
   40704:	11c00317 	ldw	r7,12(r2)
   40708:	00411b40 	call	411b4 <highscore_display>
  USERINPUT input = game_getUserInput();
   4070c:	004084c0 	call	4084c <game_getUserInput>
   40710:	e0bfff15 	stw	r2,-4(fp)
  switch(input) {
   40714:	e0bfff17 	ldw	r2,-4(fp)
   40718:	10c000a0 	cmpeqi	r3,r2,2
   4071c:	18000f1e 	bne	r3,zero,4075c <fsm_highscores+0x98>
   40720:	10c000e8 	cmpgeui	r3,r2,3
   40724:	1800031e 	bne	r3,zero,40734 <fsm_highscores+0x70>
   40728:	10800060 	cmpeqi	r2,r2,1
   4072c:	1000061e 	bne	r2,zero,40748 <fsm_highscores+0x84>
      break;
    case BTN_GREEN_ENTER:
      state = highscores_page.items[highscores_page.lcd_line0_index].enter_state; 
      break;
  }
}
   40730:	00002506 	br	407c8 <fsm_highscores+0x104>

static void fsm_highscores() {
  menu_displayPage(highscores_page);
  highscore_display(highscores_page);
  USERINPUT input = game_getUserInput();
  switch(input) {
   40734:	10c000e0 	cmpeqi	r3,r2,3
   40738:	18000d1e 	bne	r3,zero,40770 <fsm_highscores+0xac>
   4073c:	10800120 	cmpeqi	r2,r2,4
   40740:	1000161e 	bne	r2,zero,4079c <fsm_highscores+0xd8>
      break;
    case BTN_GREEN_ENTER:
      state = highscores_page.items[highscores_page.lcd_line0_index].enter_state; 
      break;
  }
}
   40744:	00002006 	br	407c8 <fsm_highscores+0x104>
  menu_displayPage(highscores_page);
  highscore_display(highscores_page);
  USERINPUT input = game_getUserInput();
  switch(input) {
    case BTN_WHITE_UP:
      menu_scrollPage(&highscores_page, BTN_WHITE_UP);
   40748:	01400044 	movi	r5,1
   4074c:	01000174 	movhi	r4,5
   40750:	210c0e04 	addi	r4,r4,12344
   40754:	00415000 	call	41500 <menu_scrollPage>
      break;
   40758:	00001b06 	br	407c8 <fsm_highscores+0x104>
    case BTN_YELLOW_DOWN:
      menu_scrollPage(&highscores_page, BTN_YELLOW_DOWN);
   4075c:	01400084 	movi	r5,2
   40760:	01000174 	movhi	r4,5
   40764:	210c0e04 	addi	r4,r4,12344
   40768:	00415000 	call	41500 <menu_scrollPage>
      break;
   4076c:	00001606 	br	407c8 <fsm_highscores+0x104>
    case BTN_RED_BACK:
      state = highscores_page.items[highscores_page.lcd_line0_index].exit_state;  
   40770:	00800174 	movhi	r2,5
   40774:	108c0e04 	addi	r2,r2,12344
   40778:	10c00117 	ldw	r3,4(r2)
   4077c:	00800174 	movhi	r2,5
   40780:	108c0e04 	addi	r2,r2,12344
   40784:	10800217 	ldw	r2,8(r2)
   40788:	10800724 	muli	r2,r2,28
   4078c:	1885883a 	add	r2,r3,r2
   40790:	10800517 	ldw	r2,20(r2)
   40794:	d0a7c115 	stw	r2,-24828(gp)
      break;
   40798:	00000b06 	br	407c8 <fsm_highscores+0x104>
    case BTN_GREEN_ENTER:
      state = highscores_page.items[highscores_page.lcd_line0_index].enter_state; 
   4079c:	00800174 	movhi	r2,5
   407a0:	108c0e04 	addi	r2,r2,12344
   407a4:	10c00117 	ldw	r3,4(r2)
   407a8:	00800174 	movhi	r2,5
   407ac:	108c0e04 	addi	r2,r2,12344
   407b0:	10800217 	ldw	r2,8(r2)
   407b4:	10800724 	muli	r2,r2,28
   407b8:	1885883a 	add	r2,r3,r2
   407bc:	10800617 	ldw	r2,24(r2)
   407c0:	d0a7c115 	stw	r2,-24828(gp)
      break;
   407c4:	0001883a 	nop
  }
}
   407c8:	0001883a 	nop
   407cc:	e037883a 	mov	sp,fp
   407d0:	dfc00117 	ldw	ra,4(sp)
   407d4:	df000017 	ldw	fp,0(sp)
   407d8:	dec00204 	addi	sp,sp,8
   407dc:	f800283a 	ret

000407e0 <fsm>:

void fsm() {
   407e0:	defffe04 	addi	sp,sp,-8
   407e4:	dfc00115 	stw	ra,4(sp)
   407e8:	df000015 	stw	fp,0(sp)
   407ec:	d839883a 	mov	fp,sp
  switch(state) {
   407f0:	d0a7c117 	ldw	r2,-24828(gp)
   407f4:	10c00060 	cmpeqi	r3,r2,1
   407f8:	1800081e 	bne	r3,zero,4081c <fsm+0x3c>
   407fc:	0080052e 	bgeu	zero,r2,40814 <fsm+0x34>
   40800:	10c000a0 	cmpeqi	r3,r2,2
   40804:	1800071e 	bne	r3,zero,40824 <fsm+0x44>
   40808:	108000e0 	cmpeqi	r2,r2,3
   4080c:	1000071e 	bne	r2,zero,4082c <fsm+0x4c>
      break;
    case HIGHSCORES:
      fsm_highscores();
      break;
  }
   40810:	00000806 	br	40834 <fsm+0x54>
}

void fsm() {
  switch(state) {
    case MAIN_MENU:
      fsm_mainMenu();
   40814:	00404940 	call	40494 <fsm_mainMenu>
      break;
   40818:	00000606 	br	40834 <fsm+0x54>
    case PLAY:
      fsm_game();
   4081c:	00405940 	call	40594 <fsm_game>
      break;
   40820:	00000406 	br	40834 <fsm+0x54>
    case SETTINGS:
      fsm_settings();
   40824:	00405c40 	call	405c4 <fsm_settings>
      break;
   40828:	00000206 	br	40834 <fsm+0x54>
    case HIGHSCORES:
      fsm_highscores();
   4082c:	00406c40 	call	406c4 <fsm_highscores>
      break;
   40830:	0001883a 	nop
  }
   40834:	0001883a 	nop
   40838:	e037883a 	mov	sp,fp
   4083c:	dfc00117 	ldw	ra,4(sp)
   40840:	df000017 	ldw	fp,0(sp)
   40844:	dec00204 	addi	sp,sp,8
   40848:	f800283a 	ret

0004084c <game_getUserInput>:
difficulty_t easy = {EASY, TASK_CNT_EASY};
difficulty_t hard = {HARD, TASK_CNT_HARD};

difficulty_t difficulty;

USERINPUT game_getUserInput() {
   4084c:	defffd04 	addi	sp,sp,-12
   40850:	dfc00215 	stw	ra,8(sp)
   40854:	df000115 	stw	fp,4(sp)
   40858:	df000104 	addi	fp,sp,4
  btnLed_reset_edge_capture();
   4085c:	00402b00 	call	402b0 <btnLed_reset_edge_capture>
  while (!btnLed_get_edge_capture()) {}
   40860:	0001883a 	nop
   40864:	00402900 	call	40290 <btnLed_get_edge_capture>
   40868:	103ffe26 	beq	r2,zero,40864 <__alt_data_end+0xfffce864>
  USERINPUT user_input;
  switch (btnLed_get_edge_capture()) {
   4086c:	00402900 	call	40290 <btnLed_get_edge_capture>
   40870:	10c000a0 	cmpeqi	r3,r2,2
   40874:	18000d1e 	bne	r3,zero,408ac <game_getUserInput+0x60>
   40878:	10c000c8 	cmpgei	r3,r2,3
   4087c:	1800031e 	bne	r3,zero,4088c <game_getUserInput+0x40>
   40880:	10800060 	cmpeqi	r2,r2,1
   40884:	1000061e 	bne	r2,zero,408a0 <game_getUserInput+0x54>
   40888:	00001106 	br	408d0 <game_getUserInput+0x84>
   4088c:	10c00120 	cmpeqi	r3,r2,4
   40890:	1800091e 	bne	r3,zero,408b8 <game_getUserInput+0x6c>
   40894:	10800220 	cmpeqi	r2,r2,8
   40898:	10000a1e 	bne	r2,zero,408c4 <game_getUserInput+0x78>
   4089c:	00000c06 	br	408d0 <game_getUserInput+0x84>
	  case 0x1:
		  user_input = BTN_GREEN_ENTER;
   408a0:	00800104 	movi	r2,4
   408a4:	e0bfff15 	stw	r2,-4(fp)
		  break;
   408a8:	00000c06 	br	408dc <game_getUserInput+0x90>
	  case 0x2:
		  user_input = BTN_RED_BACK;
   408ac:	008000c4 	movi	r2,3
   408b0:	e0bfff15 	stw	r2,-4(fp)
		  break;
   408b4:	00000906 	br	408dc <game_getUserInput+0x90>
	  case 0x4:
		  user_input = BTN_YELLOW_DOWN;
   408b8:	00800084 	movi	r2,2
   408bc:	e0bfff15 	stw	r2,-4(fp)
		  break;
   408c0:	00000606 	br	408dc <game_getUserInput+0x90>
	  case 0x8:
		  user_input = BTN_WHITE_UP;
   408c4:	00800044 	movi	r2,1
   408c8:	e0bfff15 	stw	r2,-4(fp)
		  break;
   408cc:	00000306 	br	408dc <game_getUserInput+0x90>
	  default:
		  printf( "Error: Button press UNKNOWN!!\n");
   408d0:	01000174 	movhi	r4,5
   408d4:	21099e04 	addi	r4,r4,9848
   408d8:	0042d3c0 	call	42d3c <puts>
  }
  btnLed_reset_edge_capture();
   408dc:	00402b00 	call	402b0 <btnLed_reset_edge_capture>
  printf("New user input: %d\n", user_input);
   408e0:	e17fff17 	ldw	r5,-4(fp)
   408e4:	01000174 	movhi	r4,5
   408e8:	2109a604 	addi	r4,r4,9880
   408ec:	0042c400 	call	42c40 <printf>
  return user_input;
   408f0:	e0bfff17 	ldw	r2,-4(fp)
}
   408f4:	e037883a 	mov	sp,fp
   408f8:	dfc00117 	ldw	ra,4(sp)
   408fc:	df000017 	ldw	fp,0(sp)
   40900:	dec00204 	addi	sp,sp,8
   40904:	f800283a 	ret

00040908 <game_isEndOfSequence>:

static bool game_isEndOfSequence() {
   40908:	deffff04 	addi	sp,sp,-4
   4090c:	df000015 	stw	fp,0(sp)
   40910:	d839883a 	mov	fp,sp
  if (user_sequence_len == correct_sequence_len) {
   40914:	d0e7c417 	ldw	r3,-24816(gp)
   40918:	d0a7c317 	ldw	r2,-24820(gp)
   4091c:	1880031e 	bne	r3,r2,4092c <game_isEndOfSequence+0x24>
    //tone(PIN_BUZZER, 1000, 100);
    user_sequence_len = 0;
   40920:	d027c415 	stw	zero,-24816(gp)
    return true;
   40924:	00800044 	movi	r2,1
   40928:	00000106 	br	40930 <game_isEndOfSequence+0x28>
  } else {
    return false;
   4092c:	0005883a 	mov	r2,zero
  }
}
   40930:	e037883a 	mov	sp,fp
   40934:	df000017 	ldw	fp,0(sp)
   40938:	dec00104 	addi	sp,sp,4
   4093c:	f800283a 	ret

00040940 <game_isCorrectInput>:

static bool game_isCorrectInput(USERINPUT input) {
   40940:	defffd04 	addi	sp,sp,-12
   40944:	df000215 	stw	fp,8(sp)
   40948:	df000204 	addi	fp,sp,8
   4094c:	e13fff15 	stw	r4,-4(fp)
  bool isCorrect = false;
   40950:	e03ffe05 	stb	zero,-8(fp)
  if (difficulty.difficulty == HARD) {
   40954:	d0a7c517 	ldw	r2,-24812(gp)
   40958:	10800058 	cmpnei	r2,r2,1
   4095c:	10001a1e 	bne	r2,zero,409c8 <game_isCorrectInput+0x88>
    if (input == correct_sequence[user_sequence_len-1]) {
   40960:	d0a7c417 	ldw	r2,-24816(gp)
   40964:	10ffffc4 	addi	r3,r2,-1
   40968:	00800174 	movhi	r2,5
   4096c:	109aea04 	addi	r2,r2,27560
   40970:	18c7883a 	add	r3,r3,r3
   40974:	18c7883a 	add	r3,r3,r3
   40978:	10c5883a 	add	r2,r2,r3
   4097c:	10c00017 	ldw	r3,0(r2)
   40980:	e0bfff17 	ldw	r2,-4(fp)
   40984:	1880021e 	bne	r3,r2,40990 <game_isCorrectInput+0x50>
      isCorrect = true;
   40988:	00800044 	movi	r2,1
   4098c:	e0bffe05 	stb	r2,-8(fp)
    } 
    if ((input + 4) == correct_sequence[user_sequence_len-1]) {
   40990:	e0bfff17 	ldw	r2,-4(fp)
   40994:	11000104 	addi	r4,r2,4
   40998:	d0a7c417 	ldw	r2,-24816(gp)
   4099c:	10ffffc4 	addi	r3,r2,-1
   409a0:	00800174 	movhi	r2,5
   409a4:	109aea04 	addi	r2,r2,27560
   409a8:	18c7883a 	add	r3,r3,r3
   409ac:	18c7883a 	add	r3,r3,r3
   409b0:	10c5883a 	add	r2,r2,r3
   409b4:	10800017 	ldw	r2,0(r2)
   409b8:	2080111e 	bne	r4,r2,40a00 <game_isCorrectInput+0xc0>
      isCorrect = true;
   409bc:	00800044 	movi	r2,1
   409c0:	e0bffe05 	stb	r2,-8(fp)
   409c4:	00000e06 	br	40a00 <game_isCorrectInput+0xc0>
    }
  } else if (difficulty.difficulty == EASY) {
   409c8:	d0a7c517 	ldw	r2,-24812(gp)
   409cc:	10000c1e 	bne	r2,zero,40a00 <game_isCorrectInput+0xc0>
    if (input == correct_sequence[user_sequence_len-1]) {
   409d0:	d0a7c417 	ldw	r2,-24816(gp)
   409d4:	10ffffc4 	addi	r3,r2,-1
   409d8:	00800174 	movhi	r2,5
   409dc:	109aea04 	addi	r2,r2,27560
   409e0:	18c7883a 	add	r3,r3,r3
   409e4:	18c7883a 	add	r3,r3,r3
   409e8:	10c5883a 	add	r2,r2,r3
   409ec:	10c00017 	ldw	r3,0(r2)
   409f0:	e0bfff17 	ldw	r2,-4(fp)
   409f4:	1880021e 	bne	r3,r2,40a00 <game_isCorrectInput+0xc0>
      isCorrect = true;
   409f8:	00800044 	movi	r2,1
   409fc:	e0bffe05 	stb	r2,-8(fp)
    }
  }
  return isCorrect;
   40a00:	e0bffe03 	ldbu	r2,-8(fp)
}
   40a04:	e037883a 	mov	sp,fp
   40a08:	df000017 	ldw	fp,0(sp)
   40a0c:	dec00104 	addi	sp,sp,4
   40a10:	f800283a 	ret

00040a14 <game_appendNewTask>:

static void game_appendNewTask() {
   40a14:	defffd04 	addi	sp,sp,-12
   40a18:	dfc00215 	stw	ra,8(sp)
   40a1c:	df000115 	stw	fp,4(sp)
   40a20:	df000104 	addi	fp,sp,4
  correct_sequence_len++;
   40a24:	d0a7c317 	ldw	r2,-24820(gp)
   40a28:	10800044 	addi	r2,r2,1
   40a2c:	d0a7c315 	stw	r2,-24820(gp)
  TASK task = rand() % difficulty.number_of_tasks + 1;
   40a30:	0042d680 	call	42d68 <rand>
   40a34:	1007883a 	mov	r3,r2
   40a38:	d0a7c617 	ldw	r2,-24808(gp)
   40a3c:	100b883a 	mov	r5,r2
   40a40:	1809883a 	mov	r4,r3
   40a44:	004185c0 	call	4185c <__modsi3>
   40a48:	10800044 	addi	r2,r2,1
   40a4c:	e0bfff15 	stw	r2,-4(fp)
  printf("Appending new task %d\n", task);
   40a50:	e17fff17 	ldw	r5,-4(fp)
   40a54:	01000174 	movhi	r4,5
   40a58:	2109ab04 	addi	r4,r4,9900
   40a5c:	0042c400 	call	42c40 <printf>
  correct_sequence[correct_sequence_len-1] = task;
   40a60:	d0a7c317 	ldw	r2,-24820(gp)
   40a64:	10ffffc4 	addi	r3,r2,-1
   40a68:	00800174 	movhi	r2,5
   40a6c:	109aea04 	addi	r2,r2,27560
   40a70:	18c7883a 	add	r3,r3,r3
   40a74:	18c7883a 	add	r3,r3,r3
   40a78:	10c5883a 	add	r2,r2,r3
   40a7c:	e0ffff17 	ldw	r3,-4(fp)
   40a80:	10c00015 	stw	r3,0(r2)
}
   40a84:	0001883a 	nop
   40a88:	e037883a 	mov	sp,fp
   40a8c:	dfc00117 	ldw	ra,4(sp)
   40a90:	df000017 	ldw	fp,0(sp)
   40a94:	dec00204 	addi	sp,sp,8
   40a98:	f800283a 	ret

00040a9c <game_displayCorrectSequence>:

static void game_displayCorrectSequence() {
   40a9c:	defffc04 	addi	sp,sp,-16
   40aa0:	dfc00315 	stw	ra,12(sp)
   40aa4:	df000215 	stw	fp,8(sp)
   40aa8:	df000204 	addi	fp,sp,8
  lcd_clear();
   40aac:	00413a40 	call	413a4 <lcd_clear>
  lcd_print(1,1, "Remember the");
   40ab0:	01800174 	movhi	r6,5
   40ab4:	3189b104 	addi	r6,r6,9924
   40ab8:	01400044 	movi	r5,1
   40abc:	01000044 	movi	r4,1
   40ac0:	00413300 	call	41330 <lcd_print>
  lcd_print(2,1, "sequence: ");
   40ac4:	01800174 	movhi	r6,5
   40ac8:	3189b504 	addi	r6,r6,9940
   40acc:	01400044 	movi	r5,1
   40ad0:	01000084 	movi	r4,2
   40ad4:	00413300 	call	41330 <lcd_print>
  usleep(1000000);
   40ad8:	010003f4 	movhi	r4,15
   40adc:	21109004 	addi	r4,r4,16960
   40ae0:	004fe040 	call	4fe04 <usleep>
  lcd_clear();
   40ae4:	00413a40 	call	413a4 <lcd_clear>
  for (int i = 0; i < correct_sequence_len; i++) {
   40ae8:	e03ffe15 	stw	zero,-8(fp)
   40aec:	00007306 	br	40cbc <game_displayCorrectSequence+0x220>
    TASK task = correct_sequence[i];
   40af0:	00800174 	movhi	r2,5
   40af4:	109aea04 	addi	r2,r2,27560
   40af8:	e0fffe17 	ldw	r3,-8(fp)
   40afc:	18c7883a 	add	r3,r3,r3
   40b00:	18c7883a 	add	r3,r3,r3
   40b04:	10c5883a 	add	r2,r2,r3
   40b08:	10800017 	ldw	r2,0(r2)
   40b0c:	e0bfff15 	stw	r2,-4(fp)
    if (difficulty.difficulty == EASY) {
   40b10:	d0a7c517 	ldw	r2,-24812(gp)
   40b14:	1000191e 	bne	r2,zero,40b7c <game_displayCorrectSequence+0xe0>
      switch (task) {
   40b18:	e0bfff17 	ldw	r2,-4(fp)
   40b1c:	10c000a0 	cmpeqi	r3,r2,2
   40b20:	18000d1e 	bne	r3,zero,40b58 <game_displayCorrectSequence+0xbc>
   40b24:	10c000e8 	cmpgeui	r3,r2,3
   40b28:	1800031e 	bne	r3,zero,40b38 <game_displayCorrectSequence+0x9c>
   40b2c:	10800060 	cmpeqi	r2,r2,1
   40b30:	1000061e 	bne	r2,zero,40b4c <game_displayCorrectSequence+0xb0>
          break;
        case GREEN:
          btnLed_set_led(0);
          break;
        default:
          break;
   40b34:	00005a06 	br	40ca0 <game_displayCorrectSequence+0x204>
  usleep(1000000);
  lcd_clear();
  for (int i = 0; i < correct_sequence_len; i++) {
    TASK task = correct_sequence[i];
    if (difficulty.difficulty == EASY) {
      switch (task) {
   40b38:	10c000e0 	cmpeqi	r3,r2,3
   40b3c:	1800091e 	bne	r3,zero,40b64 <game_displayCorrectSequence+0xc8>
   40b40:	10800120 	cmpeqi	r2,r2,4
   40b44:	10000a1e 	bne	r2,zero,40b70 <game_displayCorrectSequence+0xd4>
          break;
        case GREEN:
          btnLed_set_led(0);
          break;
        default:
          break;
   40b48:	00005506 	br	40ca0 <game_displayCorrectSequence+0x204>
  for (int i = 0; i < correct_sequence_len; i++) {
    TASK task = correct_sequence[i];
    if (difficulty.difficulty == EASY) {
      switch (task) {
        case WHITE:
          btnLed_set_led(6);
   40b4c:	01000184 	movi	r4,6
   40b50:	00403d80 	call	403d8 <btnLed_set_led>
          break;
   40b54:	00005206 	br	40ca0 <game_displayCorrectSequence+0x204>
        case YELLOW:
          btnLed_set_led(4);
   40b58:	01000104 	movi	r4,4
   40b5c:	00403d80 	call	403d8 <btnLed_set_led>
          break;
   40b60:	00004f06 	br	40ca0 <game_displayCorrectSequence+0x204>
        case RED:
          btnLed_set_led(2);
   40b64:	01000084 	movi	r4,2
   40b68:	00403d80 	call	403d8 <btnLed_set_led>
          break;
   40b6c:	00004c06 	br	40ca0 <game_displayCorrectSequence+0x204>
        case GREEN:
          btnLed_set_led(0);
   40b70:	0009883a 	mov	r4,zero
   40b74:	00403d80 	call	403d8 <btnLed_set_led>
          break;
   40b78:	00004906 	br	40ca0 <game_displayCorrectSequence+0x204>
        default:
          break;
      }
    } else if (difficulty.difficulty == HARD) {
   40b7c:	d0a7c517 	ldw	r2,-24812(gp)
   40b80:	10800058 	cmpnei	r2,r2,1
   40b84:	1000461e 	bne	r2,zero,40ca0 <game_displayCorrectSequence+0x204>
      switch (task) {
   40b88:	e0bfff17 	ldw	r2,-4(fp)
   40b8c:	10800268 	cmpgeui	r2,r2,9
   40b90:	1000401e 	bne	r2,zero,40c94 <game_displayCorrectSequence+0x1f8>
   40b94:	e0bfff17 	ldw	r2,-4(fp)
   40b98:	100690ba 	slli	r3,r2,2
   40b9c:	00800134 	movhi	r2,4
   40ba0:	1082ec04 	addi	r2,r2,2992
   40ba4:	1885883a 	add	r2,r3,r2
   40ba8:	10800017 	ldw	r2,0(r2)
   40bac:	1000683a 	jmp	r2
   40bb0:	00040c94 	movui	zero,4146
   40bb4:	00040bd4 	movui	zero,4143
   40bb8:	00040bec 	andhi	zero,zero,4143
   40bbc:	00040c04 	movi	zero,4144
   40bc0:	00040c1c 	xori	zero,zero,4144
   40bc4:	00040c34 	movhi	zero,4144
   40bc8:	00040c4c 	andi	zero,zero,4145
   40bcc:	00040c64 	muli	zero,zero,4145
   40bd0:	00040c7c 	xorhi	zero,zero,4145
        case WHITE:
          lcd_print(1,1, "White");
   40bd4:	01800174 	movhi	r6,5
   40bd8:	3189b804 	addi	r6,r6,9952
   40bdc:	01400044 	movi	r5,1
   40be0:	01000044 	movi	r4,1
   40be4:	00413300 	call	41330 <lcd_print>
          break;
   40be8:	00002a06 	br	40c94 <game_displayCorrectSequence+0x1f8>
        case YELLOW:
          lcd_print(1,1, "Yellow");
   40bec:	01800174 	movhi	r6,5
   40bf0:	3189ba04 	addi	r6,r6,9960
   40bf4:	01400044 	movi	r5,1
   40bf8:	01000044 	movi	r4,1
   40bfc:	00413300 	call	41330 <lcd_print>
          break;
   40c00:	00002406 	br	40c94 <game_displayCorrectSequence+0x1f8>
        case RED:
          lcd_print(1,1, "Red");
   40c04:	01800174 	movhi	r6,5
   40c08:	3189bc04 	addi	r6,r6,9968
   40c0c:	01400044 	movi	r5,1
   40c10:	01000044 	movi	r4,1
   40c14:	00413300 	call	41330 <lcd_print>
          break;
   40c18:	00001e06 	br	40c94 <game_displayCorrectSequence+0x1f8>
        case GREEN:
          lcd_print(1,1, "Green");
   40c1c:	01800174 	movhi	r6,5
   40c20:	3189bd04 	addi	r6,r6,9972
   40c24:	01400044 	movi	r5,1
   40c28:	01000044 	movi	r4,1
   40c2c:	00413300 	call	41330 <lcd_print>
          break;
   40c30:	00001806 	br	40c94 <game_displayCorrectSequence+0x1f8>
        case UP:
          lcd_print(1,1, "Up");
   40c34:	01800174 	movhi	r6,5
   40c38:	3189bf04 	addi	r6,r6,9980
   40c3c:	01400044 	movi	r5,1
   40c40:	01000044 	movi	r4,1
   40c44:	00413300 	call	41330 <lcd_print>
        break;
   40c48:	00001206 	br	40c94 <game_displayCorrectSequence+0x1f8>
        case DOWN:
          lcd_print(1,1, "Down");
   40c4c:	01800174 	movhi	r6,5
   40c50:	3189c004 	addi	r6,r6,9984
   40c54:	01400044 	movi	r5,1
   40c58:	01000044 	movi	r4,1
   40c5c:	00413300 	call	41330 <lcd_print>
          break;
   40c60:	00000c06 	br	40c94 <game_displayCorrectSequence+0x1f8>
        case LEFT:
          lcd_print(1,1, "Left");
   40c64:	01800174 	movhi	r6,5
   40c68:	3189c204 	addi	r6,r6,9992
   40c6c:	01400044 	movi	r5,1
   40c70:	01000044 	movi	r4,1
   40c74:	00413300 	call	41330 <lcd_print>
          break;
   40c78:	00000606 	br	40c94 <game_displayCorrectSequence+0x1f8>
        case RIGHT:
          lcd_print(1,1, "Right");
   40c7c:	01800174 	movhi	r6,5
   40c80:	3189c404 	addi	r6,r6,10000
   40c84:	01400044 	movi	r5,1
   40c88:	01000044 	movi	r4,1
   40c8c:	00413300 	call	41330 <lcd_print>
          break;
   40c90:	0001883a 	nop
      }
      usleep(500000);
   40c94:	01000234 	movhi	r4,8
   40c98:	21284804 	addi	r4,r4,-24288
   40c9c:	004fe040 	call	4fe04 <usleep>
    }
    usleep(500000);
   40ca0:	01000234 	movhi	r4,8
   40ca4:	21284804 	addi	r4,r4,-24288
   40ca8:	004fe040 	call	4fe04 <usleep>
    btnLed_clear_all_leds();
   40cac:	00404600 	call	40460 <btnLed_clear_all_leds>
  lcd_clear();
  lcd_print(1,1, "Remember the");
  lcd_print(2,1, "sequence: ");
  usleep(1000000);
  lcd_clear();
  for (int i = 0; i < correct_sequence_len; i++) {
   40cb0:	e0bffe17 	ldw	r2,-8(fp)
   40cb4:	10800044 	addi	r2,r2,1
   40cb8:	e0bffe15 	stw	r2,-8(fp)
   40cbc:	d0a7c317 	ldw	r2,-24820(gp)
   40cc0:	e0fffe17 	ldw	r3,-8(fp)
   40cc4:	18bf8a16 	blt	r3,r2,40af0 <__alt_data_end+0xfffceaf0>
      usleep(500000);
    }
    usleep(500000);
    btnLed_clear_all_leds();
  }
  lcd_print(1,1, "Enter the");
   40cc8:	01800174 	movhi	r6,5
   40ccc:	3189c604 	addi	r6,r6,10008
   40cd0:	01400044 	movi	r5,1
   40cd4:	01000044 	movi	r4,1
   40cd8:	00413300 	call	41330 <lcd_print>
  lcd_print(2,1, "sequence:");
   40cdc:	01800174 	movhi	r6,5
   40ce0:	3189c904 	addi	r6,r6,10020
   40ce4:	01400044 	movi	r5,1
   40ce8:	01000084 	movi	r4,2
   40cec:	00413300 	call	41330 <lcd_print>
}
   40cf0:	0001883a 	nop
   40cf4:	e037883a 	mov	sp,fp
   40cf8:	dfc00117 	ldw	ra,4(sp)
   40cfc:	df000017 	ldw	fp,0(sp)
   40d00:	dec00204 	addi	sp,sp,8
   40d04:	f800283a 	ret

00040d08 <game_displayGameStart>:

static void game_displayGameStart() {
   40d08:	defffb04 	addi	sp,sp,-20
   40d0c:	dfc00415 	stw	ra,16(sp)
   40d10:	df000315 	stw	fp,12(sp)
   40d14:	df000304 	addi	fp,sp,12
  lcd_clear();
   40d18:	00413a40 	call	413a4 <lcd_clear>
  lcd_print(1,1, "**Memory Game**");
   40d1c:	01800174 	movhi	r6,5
   40d20:	3189cc04 	addi	r6,r6,10032
   40d24:	01400044 	movi	r5,1
   40d28:	01000044 	movi	r4,1
   40d2c:	00413300 	call	41330 <lcd_print>
    for (int i = 0; i < 5; i++) {
   40d30:	e03ffd15 	stw	zero,-12(fp)
   40d34:	00001d06 	br	40dac <game_displayGameStart+0xa4>
      for (int j = 0; j < 8; j++) {
   40d38:	e03ffe15 	stw	zero,-8(fp)
   40d3c:	00000806 	br	40d60 <game_displayGameStart+0x58>
        btnLed_clear_all_leds();
   40d40:	00404600 	call	40460 <btnLed_clear_all_leds>
        btnLed_set_led(j);
   40d44:	e13ffe17 	ldw	r4,-8(fp)
   40d48:	00403d80 	call	403d8 <btnLed_set_led>
        usleep(50000);
   40d4c:	0130d414 	movui	r4,50000
   40d50:	004fe040 	call	4fe04 <usleep>

static void game_displayGameStart() {
  lcd_clear();
  lcd_print(1,1, "**Memory Game**");
    for (int i = 0; i < 5; i++) {
      for (int j = 0; j < 8; j++) {
   40d54:	e0bffe17 	ldw	r2,-8(fp)
   40d58:	10800044 	addi	r2,r2,1
   40d5c:	e0bffe15 	stw	r2,-8(fp)
   40d60:	e0bffe17 	ldw	r2,-8(fp)
   40d64:	10800210 	cmplti	r2,r2,8
   40d68:	103ff51e 	bne	r2,zero,40d40 <__alt_data_end+0xfffced40>
        btnLed_clear_all_leds();
        btnLed_set_led(j);
        usleep(50000);
      }
      for (int j = 6; j > 0; j--) {
   40d6c:	00800184 	movi	r2,6
   40d70:	e0bfff15 	stw	r2,-4(fp)
   40d74:	00000806 	br	40d98 <game_displayGameStart+0x90>
        btnLed_clear_all_leds();
   40d78:	00404600 	call	40460 <btnLed_clear_all_leds>
        btnLed_set_led(j);
   40d7c:	e13fff17 	ldw	r4,-4(fp)
   40d80:	00403d80 	call	403d8 <btnLed_set_led>
        usleep(50000);
   40d84:	0130d414 	movui	r4,50000
   40d88:	004fe040 	call	4fe04 <usleep>
      for (int j = 0; j < 8; j++) {
        btnLed_clear_all_leds();
        btnLed_set_led(j);
        usleep(50000);
      }
      for (int j = 6; j > 0; j--) {
   40d8c:	e0bfff17 	ldw	r2,-4(fp)
   40d90:	10bfffc4 	addi	r2,r2,-1
   40d94:	e0bfff15 	stw	r2,-4(fp)
   40d98:	e0bfff17 	ldw	r2,-4(fp)
   40d9c:	00bff616 	blt	zero,r2,40d78 <__alt_data_end+0xfffced78>
}

static void game_displayGameStart() {
  lcd_clear();
  lcd_print(1,1, "**Memory Game**");
    for (int i = 0; i < 5; i++) {
   40da0:	e0bffd17 	ldw	r2,-12(fp)
   40da4:	10800044 	addi	r2,r2,1
   40da8:	e0bffd15 	stw	r2,-12(fp)
   40dac:	e0bffd17 	ldw	r2,-12(fp)
   40db0:	10800150 	cmplti	r2,r2,5
   40db4:	103fe01e 	bne	r2,zero,40d38 <__alt_data_end+0xfffced38>
        btnLed_clear_all_leds();
        btnLed_set_led(j);
        usleep(50000);
      }
  }
  btnLed_clear_all_leds();
   40db8:	00404600 	call	40460 <btnLed_clear_all_leds>
  lcd_print(1,1, "Pay attention!");
   40dbc:	01800174 	movhi	r6,5
   40dc0:	3189d004 	addi	r6,r6,10048
   40dc4:	01400044 	movi	r5,1
   40dc8:	01000044 	movi	r4,1
   40dcc:	00413300 	call	41330 <lcd_print>
  usleep(1000000);
   40dd0:	010003f4 	movhi	r4,15
   40dd4:	21109004 	addi	r4,r4,16960
   40dd8:	004fe040 	call	4fe04 <usleep>
}
   40ddc:	0001883a 	nop
   40de0:	e037883a 	mov	sp,fp
   40de4:	dfc00117 	ldw	ra,4(sp)
   40de8:	df000017 	ldw	fp,0(sp)
   40dec:	dec00204 	addi	sp,sp,8
   40df0:	f800283a 	ret

00040df4 <game_displayGameOver>:

static void game_displayGameOver(int new_highscore_entry) {
   40df4:	defffb04 	addi	sp,sp,-20
   40df8:	dfc00415 	stw	ra,16(sp)
   40dfc:	df000315 	stw	fp,12(sp)
   40e00:	df000304 	addi	fp,sp,12
   40e04:	e13fff15 	stw	r4,-4(fp)
  lcd_clear();
   40e08:	00413a40 	call	413a4 <lcd_clear>
  lcd_print(1,1, "Game Over :(");
   40e0c:	01800174 	movhi	r6,5
   40e10:	3189d404 	addi	r6,r6,10064
   40e14:	01400044 	movi	r5,1
   40e18:	01000044 	movi	r4,1
   40e1c:	00413300 	call	41330 <lcd_print>
  for (int i = 0; i < 6; i++) {
   40e20:	e03ffe15 	stw	zero,-8(fp)
   40e24:	00000b06 	br	40e54 <game_displayGameOver+0x60>
	  btnLed_set_all_red_leds();
   40e28:	00404240 	call	40424 <btnLed_set_all_red_leds>
	  usleep(200000);
   40e2c:	010000f4 	movhi	r4,3
   40e30:	21035004 	addi	r4,r4,3392
   40e34:	004fe040 	call	4fe04 <usleep>
	  btnLed_clear_all_leds();    
   40e38:	00404600 	call	40460 <btnLed_clear_all_leds>
    usleep(200000);
   40e3c:	010000f4 	movhi	r4,3
   40e40:	21035004 	addi	r4,r4,3392
   40e44:	004fe040 	call	4fe04 <usleep>
}

static void game_displayGameOver(int new_highscore_entry) {
  lcd_clear();
  lcd_print(1,1, "Game Over :(");
  for (int i = 0; i < 6; i++) {
   40e48:	e0bffe17 	ldw	r2,-8(fp)
   40e4c:	10800044 	addi	r2,r2,1
   40e50:	e0bffe15 	stw	r2,-8(fp)
   40e54:	e0bffe17 	ldw	r2,-8(fp)
   40e58:	10800190 	cmplti	r2,r2,6
   40e5c:	103ff21e 	bne	r2,zero,40e28 <__alt_data_end+0xfffcee28>
	  btnLed_set_all_red_leds();
	  usleep(200000);
	  btnLed_clear_all_leds();    
    usleep(200000);
  }
  LCD_PRINTF(lcd, "%c%s\n", ESC, ESC_CLEAR_ALL);
   40e60:	d0a7c217 	ldw	r2,-24824(gp)
   40e64:	01c00174 	movhi	r7,5
   40e68:	39c9d804 	addi	r7,r7,10080
   40e6c:	018006c4 	movi	r6,27
   40e70:	01400174 	movhi	r5,5
   40e74:	2949d904 	addi	r5,r5,10084
   40e78:	1009883a 	mov	r4,r2
   40e7c:	0041ac00 	call	41ac0 <fprintf>
  LCD_PRINTF(lcd, "%c%sScore: %d\n", ESC, ESC_ROW1_COL1, correct_sequence_len-1);
   40e80:	d0e7c217 	ldw	r3,-24824(gp)
   40e84:	d0a7c317 	ldw	r2,-24820(gp)
   40e88:	10bfffc4 	addi	r2,r2,-1
   40e8c:	d8800015 	stw	r2,0(sp)
   40e90:	01c00174 	movhi	r7,5
   40e94:	39c9db04 	addi	r7,r7,10092
   40e98:	018006c4 	movi	r6,27
   40e9c:	01400174 	movhi	r5,5
   40ea0:	2949dd04 	addi	r5,r5,10100
   40ea4:	1809883a 	mov	r4,r3
   40ea8:	0041ac00 	call	41ac0 <fprintf>
  usleep(3000000);
   40eac:	01000bb4 	movhi	r4,46
   40eb0:	2131b004 	addi	r4,r4,-14656
   40eb4:	004fe040 	call	4fe04 <usleep>
  if (new_highscore_entry) {
   40eb8:	e0bfff17 	ldw	r2,-4(fp)
   40ebc:	10001626 	beq	r2,zero,40f18 <game_displayGameOver+0x124>
    LCD_PRINTF(lcd, "%c%s\n", ESC, ESC_CLEAR_ALL);
   40ec0:	d0a7c217 	ldw	r2,-24824(gp)
   40ec4:	01c00174 	movhi	r7,5
   40ec8:	39c9d804 	addi	r7,r7,10080
   40ecc:	018006c4 	movi	r6,27
   40ed0:	01400174 	movhi	r5,5
   40ed4:	2949d904 	addi	r5,r5,10084
   40ed8:	1009883a 	mov	r4,r2
   40edc:	0041ac00 	call	41ac0 <fprintf>
    LCD_PRINTF(lcd, "%c%sNew highscore \n", ESC, ESC_ROW1_COL1);
   40ee0:	d0a7c217 	ldw	r2,-24824(gp)
   40ee4:	01c00174 	movhi	r7,5
   40ee8:	39c9db04 	addi	r7,r7,10092
   40eec:	018006c4 	movi	r6,27
   40ef0:	01400174 	movhi	r5,5
   40ef4:	2949e104 	addi	r5,r5,10116
   40ef8:	1009883a 	mov	r4,r2
   40efc:	0041ac00 	call	41ac0 <fprintf>
    LCD_PRINTF(lcd, "entry: %d\n", new_highscore_entry);
   40f00:	d0a7c217 	ldw	r2,-24824(gp)
   40f04:	e1bfff17 	ldw	r6,-4(fp)
   40f08:	01400174 	movhi	r5,5
   40f0c:	2949e604 	addi	r5,r5,10136
   40f10:	1009883a 	mov	r4,r2
   40f14:	0041ac00 	call	41ac0 <fprintf>
  }
}
   40f18:	0001883a 	nop
   40f1c:	e037883a 	mov	sp,fp
   40f20:	dfc00117 	ldw	ra,4(sp)
   40f24:	df000017 	ldw	fp,0(sp)
   40f28:	dec00204 	addi	sp,sp,8
   40f2c:	f800283a 	ret

00040f30 <game_init>:

static void game_init() {
   40f30:	defffe04 	addi	sp,sp,-8
   40f34:	dfc00115 	stw	ra,4(sp)
   40f38:	df000015 	stw	fp,0(sp)
   40f3c:	d839883a 	mov	fp,sp
  correct_sequence_len = 0;
   40f40:	d027c315 	stw	zero,-24820(gp)
  user_sequence_len = 0;
   40f44:	d027c415 	stw	zero,-24816(gp)
  game_displayGameStart();
   40f48:	0040d080 	call	40d08 <game_displayGameStart>
}
   40f4c:	0001883a 	nop
   40f50:	e037883a 	mov	sp,fp
   40f54:	dfc00117 	ldw	ra,4(sp)
   40f58:	df000017 	ldw	fp,0(sp)
   40f5c:	dec00204 	addi	sp,sp,8
   40f60:	f800283a 	ret

00040f64 <game_over>:

static void game_over() {
   40f64:	defffd04 	addi	sp,sp,-12
   40f68:	dfc00215 	stw	ra,8(sp)
   40f6c:	df000115 	stw	fp,4(sp)
   40f70:	df000104 	addi	fp,sp,4
  int new_highscore_entry = highscore_update(correct_sequence_len-1);
   40f74:	d0a7c317 	ldw	r2,-24820(gp)
   40f78:	10bfffc4 	addi	r2,r2,-1
   40f7c:	1009883a 	mov	r4,r2
   40f80:	00410b80 	call	410b8 <highscore_update>
   40f84:	e0bfff15 	stw	r2,-4(fp)
  game_displayGameOver(new_highscore_entry);
   40f88:	e13fff17 	ldw	r4,-4(fp)
   40f8c:	0040df40 	call	40df4 <game_displayGameOver>
  game_getUserInput(); // push any button to continue
   40f90:	004084c0 	call	4084c <game_getUserInput>
  btnLed_set_sevenseg(0);
   40f94:	0009883a 	mov	r4,zero
   40f98:	00403a40 	call	403a4 <btnLed_set_sevenseg>
}
   40f9c:	0001883a 	nop
   40fa0:	e037883a 	mov	sp,fp
   40fa4:	dfc00117 	ldw	ra,4(sp)
   40fa8:	df000017 	ldw	fp,0(sp)
   40fac:	dec00204 	addi	sp,sp,8
   40fb0:	f800283a 	ret

00040fb4 <game_play>:

void game_play() {
   40fb4:	defffc04 	addi	sp,sp,-16
   40fb8:	dfc00315 	stw	ra,12(sp)
   40fbc:	df000215 	stw	fp,8(sp)
   40fc0:	df000204 	addi	fp,sp,8
  game_init();
   40fc4:	0040f300 	call	40f30 <game_init>
  bool game_over_flag = false;
   40fc8:	e03ffe05 	stb	zero,-8(fp)
  while (!game_over_flag) {
   40fcc:	00001706 	br	4102c <game_play+0x78>
    btnLed_set_sevenseg(correct_sequence_len);
   40fd0:	d0a7c317 	ldw	r2,-24820(gp)
   40fd4:	1009883a 	mov	r4,r2
   40fd8:	00403a40 	call	403a4 <btnLed_set_sevenseg>
    game_appendNewTask();
   40fdc:	0040a140 	call	40a14 <game_appendNewTask>
    game_displayCorrectSequence();
   40fe0:	0040a9c0 	call	40a9c <game_displayCorrectSequence>
    while (!game_isEndOfSequence()) {
   40fe4:	00000d06 	br	4101c <game_play+0x68>
      USERINPUT new_input = game_getUserInput();
   40fe8:	004084c0 	call	4084c <game_getUserInput>
   40fec:	e0bfff15 	stw	r2,-4(fp)
      user_sequence_len++;
   40ff0:	d0a7c417 	ldw	r2,-24816(gp)
   40ff4:	10800044 	addi	r2,r2,1
   40ff8:	d0a7c415 	stw	r2,-24816(gp)
      if (!game_isCorrectInput(new_input)) {
   40ffc:	e13fff17 	ldw	r4,-4(fp)
   41000:	00409400 	call	40940 <game_isCorrectInput>
   41004:	1080005c 	xori	r2,r2,1
   41008:	10803fcc 	andi	r2,r2,255
   4100c:	10000326 	beq	r2,zero,4101c <game_play+0x68>
        game_over_flag = true;
   41010:	00800044 	movi	r2,1
   41014:	e0bffe05 	stb	r2,-8(fp)
        break;
   41018:	00000406 	br	4102c <game_play+0x78>
  bool game_over_flag = false;
  while (!game_over_flag) {
    btnLed_set_sevenseg(correct_sequence_len);
    game_appendNewTask();
    game_displayCorrectSequence();
    while (!game_isEndOfSequence()) {
   4101c:	00409080 	call	40908 <game_isEndOfSequence>
   41020:	1080005c 	xori	r2,r2,1
   41024:	10803fcc 	andi	r2,r2,255
   41028:	103fef1e 	bne	r2,zero,40fe8 <__alt_data_end+0xfffcefe8>
}

void game_play() {
  game_init();
  bool game_over_flag = false;
  while (!game_over_flag) {
   4102c:	e0bffe03 	ldbu	r2,-8(fp)
   41030:	1080005c 	xori	r2,r2,1
   41034:	10803fcc 	andi	r2,r2,255
   41038:	103fe51e 	bne	r2,zero,40fd0 <__alt_data_end+0xfffcefd0>
        game_over_flag = true;
        break;
      }
    }
  }
  game_over();
   4103c:	0040f640 	call	40f64 <game_over>
}
   41040:	0001883a 	nop
   41044:	e037883a 	mov	sp,fp
   41048:	dfc00117 	ldw	ra,4(sp)
   4104c:	df000017 	ldw	fp,0(sp)
   41050:	dec00204 	addi	sp,sp,8
   41054:	f800283a 	ret

00041058 <game_set_easy_difficulty>:

void game_set_easy_difficulty() {
   41058:	deffff04 	addi	sp,sp,-4
   4105c:	df000015 	stw	fp,0(sp)
   41060:	d839883a 	mov	fp,sp
  difficulty = easy;
   41064:	d0a00017 	ldw	r2,-32768(gp)
   41068:	d0a7c515 	stw	r2,-24812(gp)
   4106c:	d0a00117 	ldw	r2,-32764(gp)
   41070:	d0a7c615 	stw	r2,-24808(gp)
}
   41074:	0001883a 	nop
   41078:	e037883a 	mov	sp,fp
   4107c:	df000017 	ldw	fp,0(sp)
   41080:	dec00104 	addi	sp,sp,4
   41084:	f800283a 	ret

00041088 <game_set_hard_difficulty>:

void game_set_hard_difficulty() {
   41088:	deffff04 	addi	sp,sp,-4
   4108c:	df000015 	stw	fp,0(sp)
   41090:	d839883a 	mov	fp,sp
  difficulty = hard;
   41094:	d0a00217 	ldw	r2,-32760(gp)
   41098:	d0a7c515 	stw	r2,-24812(gp)
   4109c:	d0a00317 	ldw	r2,-32756(gp)
   410a0:	d0a7c615 	stw	r2,-24808(gp)
}
   410a4:	0001883a 	nop
   410a8:	e037883a 	mov	sp,fp
   410ac:	df000017 	ldw	fp,0(sp)
   410b0:	dec00104 	addi	sp,sp,4
   410b4:	f800283a 	ret

000410b8 <highscore_update>:
#define HIGHSCORES_CNT 5

static int highscore_list[HIGHSCORES_CNT] = {0,0,0,0,0};

/* Check if new score is new highscore, and update highscore list */
int highscore_update(int new_score) {
   410b8:	defffb04 	addi	sp,sp,-20
   410bc:	df000415 	stw	fp,16(sp)
   410c0:	df000404 	addi	fp,sp,16
   410c4:	e13fff15 	stw	r4,-4(fp)
	int new_highscore_entry = 0;
   410c8:	e03ffc15 	stw	zero,-16(fp)
	for (int i = 0; i < HIGHSCORES_CNT; i++) {
   410cc:	e03ffd15 	stw	zero,-12(fp)
   410d0:	00003006 	br	41194 <highscore_update+0xdc>
		if (new_score > highscore_list[i]) {
   410d4:	00800174 	movhi	r2,5
   410d8:	109b4e04 	addi	r2,r2,27960
   410dc:	e0fffd17 	ldw	r3,-12(fp)
   410e0:	18c7883a 	add	r3,r3,r3
   410e4:	18c7883a 	add	r3,r3,r3
   410e8:	10c5883a 	add	r2,r2,r3
   410ec:	10c00017 	ldw	r3,0(r2)
   410f0:	e0bfff17 	ldw	r2,-4(fp)
   410f4:	1880240e 	bge	r3,r2,41188 <highscore_update+0xd0>
			for (int j = HIGHSCORES_CNT-1; j > i; j--) {
   410f8:	00800104 	movi	r2,4
   410fc:	e0bffe15 	stw	r2,-8(fp)
   41100:	00001206 	br	4114c <highscore_update+0x94>
				highscore_list[j] = highscore_list[j-1];
   41104:	e0bffe17 	ldw	r2,-8(fp)
   41108:	10ffffc4 	addi	r3,r2,-1
   4110c:	00800174 	movhi	r2,5
   41110:	109b4e04 	addi	r2,r2,27960
   41114:	18c7883a 	add	r3,r3,r3
   41118:	18c7883a 	add	r3,r3,r3
   4111c:	10c5883a 	add	r2,r2,r3
   41120:	11000017 	ldw	r4,0(r2)
   41124:	00800174 	movhi	r2,5
   41128:	109b4e04 	addi	r2,r2,27960
   4112c:	e0fffe17 	ldw	r3,-8(fp)
   41130:	18c7883a 	add	r3,r3,r3
   41134:	18c7883a 	add	r3,r3,r3
   41138:	10c5883a 	add	r2,r2,r3
   4113c:	11000015 	stw	r4,0(r2)
/* Check if new score is new highscore, and update highscore list */
int highscore_update(int new_score) {
	int new_highscore_entry = 0;
	for (int i = 0; i < HIGHSCORES_CNT; i++) {
		if (new_score > highscore_list[i]) {
			for (int j = HIGHSCORES_CNT-1; j > i; j--) {
   41140:	e0bffe17 	ldw	r2,-8(fp)
   41144:	10bfffc4 	addi	r2,r2,-1
   41148:	e0bffe15 	stw	r2,-8(fp)
   4114c:	e0bffe17 	ldw	r2,-8(fp)
   41150:	e0fffd17 	ldw	r3,-12(fp)
   41154:	18bfeb16 	blt	r3,r2,41104 <__alt_data_end+0xfffcf104>
				highscore_list[j] = highscore_list[j-1];
			}
			highscore_list[i] = new_score;
   41158:	00800174 	movhi	r2,5
   4115c:	109b4e04 	addi	r2,r2,27960
   41160:	e0fffd17 	ldw	r3,-12(fp)
   41164:	18c7883a 	add	r3,r3,r3
   41168:	18c7883a 	add	r3,r3,r3
   4116c:	10c5883a 	add	r2,r2,r3
   41170:	e0ffff17 	ldw	r3,-4(fp)
   41174:	10c00015 	stw	r3,0(r2)
			new_highscore_entry = i+1;
   41178:	e0bffd17 	ldw	r2,-12(fp)
   4117c:	10800044 	addi	r2,r2,1
   41180:	e0bffc15 	stw	r2,-16(fp)
			break;
   41184:	00000606 	br	411a0 <highscore_update+0xe8>
static int highscore_list[HIGHSCORES_CNT] = {0,0,0,0,0};

/* Check if new score is new highscore, and update highscore list */
int highscore_update(int new_score) {
	int new_highscore_entry = 0;
	for (int i = 0; i < HIGHSCORES_CNT; i++) {
   41188:	e0bffd17 	ldw	r2,-12(fp)
   4118c:	10800044 	addi	r2,r2,1
   41190:	e0bffd15 	stw	r2,-12(fp)
   41194:	e0bffd17 	ldw	r2,-12(fp)
   41198:	10800150 	cmplti	r2,r2,5
   4119c:	103fcd1e 	bne	r2,zero,410d4 <__alt_data_end+0xfffcf0d4>
			highscore_list[i] = new_score;
			new_highscore_entry = i+1;
			break;
		}
	}
	return new_highscore_entry;
   411a0:	e0bffc17 	ldw	r2,-16(fp)
}
   411a4:	e037883a 	mov	sp,fp
   411a8:	df000017 	ldw	fp,0(sp)
   411ac:	dec00104 	addi	sp,sp,4
   411b0:	f800283a 	ret

000411b4 <highscore_display>:

void highscore_display(page p) {
   411b4:	defff904 	addi	sp,sp,-28
   411b8:	dfc00615 	stw	ra,24(sp)
   411bc:	df000515 	stw	fp,20(sp)
   411c0:	df000504 	addi	fp,sp,20
   411c4:	e13ffc15 	stw	r4,-16(fp)
   411c8:	e17ffd15 	stw	r5,-12(fp)
   411cc:	e1bffe15 	stw	r6,-8(fp)
   411d0:	e1ffff15 	stw	r7,-4(fp)
	//LCD_PRINTF(lcd, "%c%s\n", ESC, ESC_CLEAR_ALL);
	LCD_PRINTF(lcd, "%c%s%d\n", ESC, ESC_ROW1_COL13, highscore_list[p.lcd_line0_index]);
   411d4:	d127c217 	ldw	r4,-24824(gp)
   411d8:	e0fffe17 	ldw	r3,-8(fp)
   411dc:	00800174 	movhi	r2,5
   411e0:	109b4e04 	addi	r2,r2,27960
   411e4:	18c7883a 	add	r3,r3,r3
   411e8:	18c7883a 	add	r3,r3,r3
   411ec:	10c5883a 	add	r2,r2,r3
   411f0:	10800017 	ldw	r2,0(r2)
   411f4:	d8800015 	stw	r2,0(sp)
   411f8:	01c00174 	movhi	r7,5
   411fc:	39c9e904 	addi	r7,r7,10148
   41200:	018006c4 	movi	r6,27
   41204:	01400174 	movhi	r5,5
   41208:	2949eb04 	addi	r5,r5,10156
   4120c:	0041ac00 	call	41ac0 <fprintf>
	LCD_PRINTF(lcd, "%c%s%d\n", ESC, ESC_ROW2_COL13, highscore_list[p.lcd_line1_index]);
   41210:	d127c217 	ldw	r4,-24824(gp)
   41214:	e0ffff17 	ldw	r3,-4(fp)
   41218:	00800174 	movhi	r2,5
   4121c:	109b4e04 	addi	r2,r2,27960
   41220:	18c7883a 	add	r3,r3,r3
   41224:	18c7883a 	add	r3,r3,r3
   41228:	10c5883a 	add	r2,r2,r3
   4122c:	10800017 	ldw	r2,0(r2)
   41230:	d8800015 	stw	r2,0(sp)
   41234:	01c00174 	movhi	r7,5
   41238:	39c9ed04 	addi	r7,r7,10164
   4123c:	018006c4 	movi	r6,27
   41240:	01400174 	movhi	r5,5
   41244:	2949eb04 	addi	r5,r5,10156
   41248:	0041ac00 	call	41ac0 <fprintf>
}
   4124c:	0001883a 	nop
   41250:	e037883a 	mov	sp,fp
   41254:	dfc00117 	ldw	ra,4(sp)
   41258:	df000017 	ldw	fp,0(sp)
   4125c:	dec00204 	addi	sp,sp,8
   41260:	f800283a 	ret

00041264 <highscore_reset>:

void highscore_reset() {
   41264:	defffd04 	addi	sp,sp,-12
   41268:	dfc00215 	stw	ra,8(sp)
   4126c:	df000115 	stw	fp,4(sp)
   41270:	df000104 	addi	fp,sp,4
	for (int i = 0; i < HIGHSCORES_CNT; i++) {
   41274:	e03fff15 	stw	zero,-4(fp)
   41278:	00000a06 	br	412a4 <highscore_reset+0x40>
		highscore_list[i] = 0;
   4127c:	00800174 	movhi	r2,5
   41280:	109b4e04 	addi	r2,r2,27960
   41284:	e0ffff17 	ldw	r3,-4(fp)
   41288:	18c7883a 	add	r3,r3,r3
   4128c:	18c7883a 	add	r3,r3,r3
   41290:	10c5883a 	add	r2,r2,r3
   41294:	10000015 	stw	zero,0(r2)
	LCD_PRINTF(lcd, "%c%s%d\n", ESC, ESC_ROW1_COL13, highscore_list[p.lcd_line0_index]);
	LCD_PRINTF(lcd, "%c%s%d\n", ESC, ESC_ROW2_COL13, highscore_list[p.lcd_line1_index]);
}

void highscore_reset() {
	for (int i = 0; i < HIGHSCORES_CNT; i++) {
   41298:	e0bfff17 	ldw	r2,-4(fp)
   4129c:	10800044 	addi	r2,r2,1
   412a0:	e0bfff15 	stw	r2,-4(fp)
   412a4:	e0bfff17 	ldw	r2,-4(fp)
   412a8:	10800150 	cmplti	r2,r2,5
   412ac:	103ff31e 	bne	r2,zero,4127c <__alt_data_end+0xfffcf27c>
		highscore_list[i] = 0;
	}
	LCD_PRINTF(lcd, "%c%s\n", ESC, ESC_CLEAR_ALL);
   412b0:	d0a7c217 	ldw	r2,-24824(gp)
   412b4:	01c00174 	movhi	r7,5
   412b8:	39c9ef04 	addi	r7,r7,10172
   412bc:	018006c4 	movi	r6,27
   412c0:	01400174 	movhi	r5,5
   412c4:	2949f004 	addi	r5,r5,10176
   412c8:	1009883a 	mov	r4,r2
   412cc:	0041ac00 	call	41ac0 <fprintf>
	LCD_PRINTF(lcd, "%c%sHighscore is \n", ESC, ESC_ROW1_COL1);
   412d0:	d0a7c217 	ldw	r2,-24824(gp)
   412d4:	01c00174 	movhi	r7,5
   412d8:	39c9f204 	addi	r7,r7,10184
   412dc:	018006c4 	movi	r6,27
   412e0:	01400174 	movhi	r5,5
   412e4:	2949f404 	addi	r5,r5,10192
   412e8:	1009883a 	mov	r4,r2
   412ec:	0041ac00 	call	41ac0 <fprintf>
  	LCD_PRINTF(lcd, "reset\n");
   412f0:	d0a7c217 	ldw	r2,-24824(gp)
   412f4:	100f883a 	mov	r7,r2
   412f8:	01800184 	movi	r6,6
   412fc:	01400044 	movi	r5,1
   41300:	01000174 	movhi	r4,5
   41304:	2109f904 	addi	r4,r4,10212
   41308:	004208c0 	call	4208c <fwrite>
	usleep(3000000);
   4130c:	01000bb4 	movhi	r4,46
   41310:	2131b004 	addi	r4,r4,-14656
   41314:	004fe040 	call	4fe04 <usleep>
}
   41318:	0001883a 	nop
   4131c:	e037883a 	mov	sp,fp
   41320:	dfc00117 	ldw	ra,4(sp)
   41324:	df000017 	ldw	fp,0(sp)
   41328:	dec00204 	addi	sp,sp,8
   4132c:	f800283a 	ret

00041330 <lcd_print>:
#include "lcd.h"

void lcd_print(int row, int col, char str[]) {
   41330:	defff704 	addi	sp,sp,-36
   41334:	dfc00815 	stw	ra,32(sp)
   41338:	df000715 	stw	fp,28(sp)
   4133c:	df000704 	addi	fp,sp,28
   41340:	e13ffd15 	stw	r4,-12(fp)
   41344:	e17ffe15 	stw	r5,-8(fp)
   41348:	e1bfff15 	stw	r6,-4(fp)
    LCD_PRINTF(lcd, "%c[%d;%dH%c%s\b%s\n", ESC, row, col+1, ESC, ESC_CLEAR, str);
   4134c:	d127c217 	ldw	r4,-24824(gp)
   41350:	e0bffe17 	ldw	r2,-8(fp)
   41354:	10c00044 	addi	r3,r2,1
   41358:	e0bfff17 	ldw	r2,-4(fp)
   4135c:	d8800315 	stw	r2,12(sp)
   41360:	00800174 	movhi	r2,5
   41364:	108a0004 	addi	r2,r2,10240
   41368:	d8800215 	stw	r2,8(sp)
   4136c:	008006c4 	movi	r2,27
   41370:	d8800115 	stw	r2,4(sp)
   41374:	d8c00015 	stw	r3,0(sp)
   41378:	e1fffd17 	ldw	r7,-12(fp)
   4137c:	018006c4 	movi	r6,27
   41380:	01400174 	movhi	r5,5
   41384:	2949fb04 	addi	r5,r5,10220
   41388:	0041ac00 	call	41ac0 <fprintf>
}
   4138c:	0001883a 	nop
   41390:	e037883a 	mov	sp,fp
   41394:	dfc00117 	ldw	ra,4(sp)
   41398:	df000017 	ldw	fp,0(sp)
   4139c:	dec00204 	addi	sp,sp,8
   413a0:	f800283a 	ret

000413a4 <lcd_clear>:

void lcd_clear() {
   413a4:	defffe04 	addi	sp,sp,-8
   413a8:	dfc00115 	stw	ra,4(sp)
   413ac:	df000015 	stw	fp,0(sp)
   413b0:	d839883a 	mov	fp,sp
    LCD_PRINTF(lcd, "%c%s\n", ESC, ESC_CLEAR_ALL);
   413b4:	d0a7c217 	ldw	r2,-24824(gp)
   413b8:	01c00174 	movhi	r7,5
   413bc:	39ca0104 	addi	r7,r7,10244
   413c0:	018006c4 	movi	r6,27
   413c4:	01400174 	movhi	r5,5
   413c8:	294a0204 	addi	r5,r5,10248
   413cc:	1009883a 	mov	r4,r2
   413d0:	0041ac00 	call	41ac0 <fprintf>
   413d4:	0001883a 	nop
   413d8:	e037883a 	mov	sp,fp
   413dc:	dfc00117 	ldw	ra,4(sp)
   413e0:	df000017 	ldw	fp,0(sp)
   413e4:	dec00204 	addi	sp,sp,8
   413e8:	f800283a 	ret

000413ec <main>:
#include "lcd.h"
#include "btnLed.h"
#include "game.h"
#include "fsm.h"

int main(void) {
   413ec:	defffe04 	addi	sp,sp,-8
   413f0:	dfc00115 	stw	ra,4(sp)
   413f4:	df000015 	stw	fp,0(sp)
   413f8:	d839883a 	mov	fp,sp
    srand ( time(NULL) );
   413fc:	0009883a 	mov	r4,zero
   41400:	00432f80 	call	432f8 <time>
   41404:	1009883a 	mov	r4,r2
   41408:	0042d500 	call	42d50 <srand>
    
	// Inititalize the lcd
	lcd = LCD_OPEN();
   4140c:	01400174 	movhi	r5,5
   41410:	294a0404 	addi	r5,r5,10256
   41414:	01000174 	movhi	r4,5
   41418:	210a0504 	addi	r4,r4,10260
   4141c:	0041a800 	call	41a80 <fopen>
   41420:	d0a7c215 	stw	r2,-24824(gp)
	if(lcd == NULL) {
   41424:	d0a7c217 	ldw	r2,-24824(gp)
   41428:	1000031e 	bne	r2,zero,41438 <main+0x4c>
		printf("Error: lcd not found!");
   4142c:	01000174 	movhi	r4,5
   41430:	210a0a04 	addi	r4,r4,10280
   41434:	0042c400 	call	42c40 <printf>
	}

    // Initialize the button pio.
    btnLed_init();
   41438:	00403300 	call	40330 <btnLed_init>

    game_set_hard_difficulty();
   4143c:	00410880 	call	41088 <game_set_hard_difficulty>

    while(1) {
    	fsm();
   41440:	00407e00 	call	407e0 <fsm>
    	LCD_PRINTF(lcd, "%c%s\n", ESC, ESC_CLEAR_ALL);
    	input = game_getUserInput();
    	LCD_PRINTF(lcd, "%c%s>helloooen\n", ESC, ESC_ROW1_COL1);
    	*/

		usleep(100000); // Sleep for 0.1s.
   41444:	010000b4 	movhi	r4,2
   41448:	2121a804 	addi	r4,r4,-31072
   4144c:	004fe040 	call	4fe04 <usleep>

    }
   41450:	003ffb06 	br	41440 <__alt_data_end+0xfffcf440>

00041454 <menu_displayPage>:
page highscores_page = {ITEM_CNT_HIGHSCORES_PAGE, highscores_page_items, 0, 1};
page settings_page   = {ITEM_CNT_SETTINGS_PAGE,   settings_page_items,   0, 1};
page about_page      = {ITEM_CNT_ABOUT_PAGE,      about_page_items,      0, 1};
page difficulty_page = {ITEM_CNT_ABOUT_PAGE,      difficulty_page_items, 0, 1};

void menu_displayPage(page p) {
   41454:	defff404 	addi	sp,sp,-48
   41458:	dfc00b15 	stw	ra,44(sp)
   4145c:	df000a15 	stw	fp,40(sp)
   41460:	df000a04 	addi	fp,sp,40
   41464:	e13ffc15 	stw	r4,-16(fp)
   41468:	e17ffd15 	stw	r5,-12(fp)
   4146c:	e1bffe15 	stw	r6,-8(fp)
   41470:	e1ffff15 	stw	r7,-4(fp)
  char str1[] = ">";
   41474:	00800f84 	movi	r2,62
   41478:	e0bff60d 	sth	r2,-40(fp)
  char str_with_pointer[20];
   
  strcpy(str_with_pointer, str1);   // copy the first string into the result array
   4147c:	e0bff684 	addi	r2,fp,-38
   41480:	e17ff604 	addi	r5,fp,-40
   41484:	1009883a 	mov	r4,r2
   41488:	00431d00 	call	431d0 <strcpy>
  strcat(str_with_pointer, p.items[p.lcd_line0_index].name);   // concatenate the second string to the result array
   4148c:	e0fffd17 	ldw	r3,-12(fp)
   41490:	e0bffe17 	ldw	r2,-8(fp)
   41494:	10800724 	muli	r2,r2,28
   41498:	1885883a 	add	r2,r3,r2
   4149c:	1007883a 	mov	r3,r2
   414a0:	e0bff684 	addi	r2,fp,-38
   414a4:	180b883a 	mov	r5,r3
   414a8:	1009883a 	mov	r4,r2
   414ac:	004314c0 	call	4314c <strcat>
  lcd_clear();
   414b0:	00413a40 	call	413a4 <lcd_clear>
  lcd_print(1, 1, str_with_pointer);
   414b4:	e0bff684 	addi	r2,fp,-38
   414b8:	100d883a 	mov	r6,r2
   414bc:	01400044 	movi	r5,1
   414c0:	01000044 	movi	r4,1
   414c4:	00413300 	call	41330 <lcd_print>
  lcd_print(2, 2, p.items[p.lcd_line1_index].name);
   414c8:	e0fffd17 	ldw	r3,-12(fp)
   414cc:	e0bfff17 	ldw	r2,-4(fp)
   414d0:	10800724 	muli	r2,r2,28
   414d4:	1885883a 	add	r2,r3,r2
   414d8:	100d883a 	mov	r6,r2
   414dc:	01400084 	movi	r5,2
   414e0:	01000084 	movi	r4,2
   414e4:	00413300 	call	41330 <lcd_print>
}
   414e8:	0001883a 	nop
   414ec:	e037883a 	mov	sp,fp
   414f0:	dfc00117 	ldw	ra,4(sp)
   414f4:	df000017 	ldw	fp,0(sp)
   414f8:	dec00204 	addi	sp,sp,8
   414fc:	f800283a 	ret

00041500 <menu_scrollPage>:

void menu_scrollPage(page *p, USERINPUT up_down) {
   41500:	defffc04 	addi	sp,sp,-16
   41504:	dfc00315 	stw	ra,12(sp)
   41508:	df000215 	stw	fp,8(sp)
   4150c:	df000204 	addi	fp,sp,8
   41510:	e13ffe15 	stw	r4,-8(fp)
   41514:	e17fff15 	stw	r5,-4(fp)
  if (up_down == BTN_WHITE_UP) {
   41518:	e0bfff17 	ldw	r2,-4(fp)
   4151c:	10800058 	cmpnei	r2,r2,1
   41520:	10001d1e 	bne	r2,zero,41598 <menu_scrollPage+0x98>
    p->lcd_line0_index = ((p->lcd_line0_index - 1) + p->item_cnt) % p->item_cnt;
   41524:	e0bffe17 	ldw	r2,-8(fp)
   41528:	10800217 	ldw	r2,8(r2)
   4152c:	10ffffc4 	addi	r3,r2,-1
   41530:	e0bffe17 	ldw	r2,-8(fp)
   41534:	10800017 	ldw	r2,0(r2)
   41538:	1887883a 	add	r3,r3,r2
   4153c:	e0bffe17 	ldw	r2,-8(fp)
   41540:	10800017 	ldw	r2,0(r2)
   41544:	100b883a 	mov	r5,r2
   41548:	1809883a 	mov	r4,r3
   4154c:	004185c0 	call	4185c <__modsi3>
   41550:	1007883a 	mov	r3,r2
   41554:	e0bffe17 	ldw	r2,-8(fp)
   41558:	10c00215 	stw	r3,8(r2)
    p->lcd_line1_index = ((p->lcd_line1_index - 1) + p->item_cnt) % p->item_cnt;
   4155c:	e0bffe17 	ldw	r2,-8(fp)
   41560:	10800317 	ldw	r2,12(r2)
   41564:	10ffffc4 	addi	r3,r2,-1
   41568:	e0bffe17 	ldw	r2,-8(fp)
   4156c:	10800017 	ldw	r2,0(r2)
   41570:	1887883a 	add	r3,r3,r2
   41574:	e0bffe17 	ldw	r2,-8(fp)
   41578:	10800017 	ldw	r2,0(r2)
   4157c:	100b883a 	mov	r5,r2
   41580:	1809883a 	mov	r4,r3
   41584:	004185c0 	call	4185c <__modsi3>
   41588:	1007883a 	mov	r3,r2
   4158c:	e0bffe17 	ldw	r2,-8(fp)
   41590:	10c00315 	stw	r3,12(r2)
  } else if (up_down == BTN_YELLOW_DOWN) {
    p->lcd_line0_index = (p->lcd_line0_index + 1) % p->item_cnt;
    p->lcd_line1_index = (p->lcd_line1_index + 1) % p->item_cnt;
  }
}
   41594:	00001906 	br	415fc <menu_scrollPage+0xfc>

void menu_scrollPage(page *p, USERINPUT up_down) {
  if (up_down == BTN_WHITE_UP) {
    p->lcd_line0_index = ((p->lcd_line0_index - 1) + p->item_cnt) % p->item_cnt;
    p->lcd_line1_index = ((p->lcd_line1_index - 1) + p->item_cnt) % p->item_cnt;
  } else if (up_down == BTN_YELLOW_DOWN) {
   41598:	e0bfff17 	ldw	r2,-4(fp)
   4159c:	10800098 	cmpnei	r2,r2,2
   415a0:	1000161e 	bne	r2,zero,415fc <menu_scrollPage+0xfc>
    p->lcd_line0_index = (p->lcd_line0_index + 1) % p->item_cnt;
   415a4:	e0bffe17 	ldw	r2,-8(fp)
   415a8:	10800217 	ldw	r2,8(r2)
   415ac:	10c00044 	addi	r3,r2,1
   415b0:	e0bffe17 	ldw	r2,-8(fp)
   415b4:	10800017 	ldw	r2,0(r2)
   415b8:	100b883a 	mov	r5,r2
   415bc:	1809883a 	mov	r4,r3
   415c0:	004185c0 	call	4185c <__modsi3>
   415c4:	1007883a 	mov	r3,r2
   415c8:	e0bffe17 	ldw	r2,-8(fp)
   415cc:	10c00215 	stw	r3,8(r2)
    p->lcd_line1_index = (p->lcd_line1_index + 1) % p->item_cnt;
   415d0:	e0bffe17 	ldw	r2,-8(fp)
   415d4:	10800317 	ldw	r2,12(r2)
   415d8:	10c00044 	addi	r3,r2,1
   415dc:	e0bffe17 	ldw	r2,-8(fp)
   415e0:	10800017 	ldw	r2,0(r2)
   415e4:	100b883a 	mov	r5,r2
   415e8:	1809883a 	mov	r4,r3
   415ec:	004185c0 	call	4185c <__modsi3>
   415f0:	1007883a 	mov	r3,r2
   415f4:	e0bffe17 	ldw	r2,-8(fp)
   415f8:	10c00315 	stw	r3,12(r2)
  }
}
   415fc:	0001883a 	nop
   41600:	e037883a 	mov	sp,fp
   41604:	dfc00117 	ldw	ra,4(sp)
   41608:	df000017 	ldw	fp,0(sp)
   4160c:	dec00204 	addi	sp,sp,8
   41610:	f800283a 	ret

00041614 <menu_about>:

void menu_about() {
   41614:	defffd04 	addi	sp,sp,-12
   41618:	dfc00215 	stw	ra,8(sp)
   4161c:	df000115 	stw	fp,4(sp)
   41620:	df000104 	addi	fp,sp,4
  USERINPUT input = 0;
   41624:	e03fff15 	stw	zero,-4(fp)
  while (input != BTN_RED_BACK) {
   41628:	00001a06 	br	41694 <menu_about+0x80>
    menu_displayPage(about_page);
   4162c:	00800174 	movhi	r2,5
   41630:	108c1604 	addi	r2,r2,12376
   41634:	11000017 	ldw	r4,0(r2)
   41638:	11400117 	ldw	r5,4(r2)
   4163c:	11800217 	ldw	r6,8(r2)
   41640:	11c00317 	ldw	r7,12(r2)
   41644:	00414540 	call	41454 <menu_displayPage>
    input = game_getUserInput();
   41648:	004084c0 	call	4084c <game_getUserInput>
   4164c:	e0bfff15 	stw	r2,-4(fp)
    switch(input) {
   41650:	e0bfff17 	ldw	r2,-4(fp)
   41654:	10c00060 	cmpeqi	r3,r2,1
   41658:	1800031e 	bne	r3,zero,41668 <menu_about+0x54>
   4165c:	108000a0 	cmpeqi	r2,r2,2
   41660:	1000061e 	bne	r2,zero,4167c <menu_about+0x68>
   41664:	00000a06 	br	41690 <menu_about+0x7c>
      case BTN_WHITE_UP:
        menu_scrollPage(&about_page, BTN_WHITE_UP);
   41668:	01400044 	movi	r5,1
   4166c:	01000174 	movhi	r4,5
   41670:	210c1604 	addi	r4,r4,12376
   41674:	00415000 	call	41500 <menu_scrollPage>
        break;
   41678:	00000606 	br	41694 <menu_about+0x80>
      case BTN_YELLOW_DOWN:
        menu_scrollPage(&about_page, BTN_YELLOW_DOWN);
   4167c:	01400084 	movi	r5,2
   41680:	01000174 	movhi	r4,5
   41684:	210c1604 	addi	r4,r4,12376
   41688:	00415000 	call	41500 <menu_scrollPage>
        break;
   4168c:	00000106 	br	41694 <menu_about+0x80>
      default:
        break;
   41690:	0001883a 	nop
  }
}

void menu_about() {
  USERINPUT input = 0;
  while (input != BTN_RED_BACK) {
   41694:	e0bfff17 	ldw	r2,-4(fp)
   41698:	108000d8 	cmpnei	r2,r2,3
   4169c:	103fe31e 	bne	r2,zero,4162c <__alt_data_end+0xfffcf62c>
        break;
      default:
        break;
    }
  }
}
   416a0:	0001883a 	nop
   416a4:	e037883a 	mov	sp,fp
   416a8:	dfc00117 	ldw	ra,4(sp)
   416ac:	df000017 	ldw	fp,0(sp)
   416b0:	dec00204 	addi	sp,sp,8
   416b4:	f800283a 	ret

000416b8 <menu_change_difficulty>:

void menu_change_difficulty() {
   416b8:	defffd04 	addi	sp,sp,-12
   416bc:	dfc00215 	stw	ra,8(sp)
   416c0:	df000115 	stw	fp,4(sp)
   416c4:	df000104 	addi	fp,sp,4
  USERINPUT input = 0;
   416c8:	e03fff15 	stw	zero,-4(fp)
  while (input != BTN_RED_BACK && input != BTN_GREEN_ENTER) {
   416cc:	00003306 	br	4179c <menu_change_difficulty+0xe4>
    menu_displayPage(difficulty_page);
   416d0:	00800174 	movhi	r2,5
   416d4:	108c1a04 	addi	r2,r2,12392
   416d8:	11000017 	ldw	r4,0(r2)
   416dc:	11400117 	ldw	r5,4(r2)
   416e0:	11800217 	ldw	r6,8(r2)
   416e4:	11c00317 	ldw	r7,12(r2)
   416e8:	00414540 	call	41454 <menu_displayPage>
    input = game_getUserInput();
   416ec:	004084c0 	call	4084c <game_getUserInput>
   416f0:	e0bfff15 	stw	r2,-4(fp)
    switch(input) {
   416f4:	e0bfff17 	ldw	r2,-4(fp)
   416f8:	10c000a0 	cmpeqi	r3,r2,2
   416fc:	1800091e 	bne	r3,zero,41724 <menu_change_difficulty+0x6c>
   41700:	10c00120 	cmpeqi	r3,r2,4
   41704:	18000c1e 	bne	r3,zero,41738 <menu_change_difficulty+0x80>
   41708:	10800060 	cmpeqi	r2,r2,1
   4170c:	10002226 	beq	r2,zero,41798 <menu_change_difficulty+0xe0>
      case BTN_WHITE_UP:
        menu_scrollPage(&difficulty_page, BTN_WHITE_UP);
   41710:	01400044 	movi	r5,1
   41714:	01000174 	movhi	r4,5
   41718:	210c1a04 	addi	r4,r4,12392
   4171c:	00415000 	call	41500 <menu_scrollPage>
        break;
   41720:	00001e06 	br	4179c <menu_change_difficulty+0xe4>
      case BTN_YELLOW_DOWN:
        menu_scrollPage(&difficulty_page, BTN_YELLOW_DOWN);
   41724:	01400084 	movi	r5,2
   41728:	01000174 	movhi	r4,5
   4172c:	210c1a04 	addi	r4,r4,12392
   41730:	00415000 	call	41500 <menu_scrollPage>
        break;
   41734:	00001906 	br	4179c <menu_change_difficulty+0xe4>
      case BTN_GREEN_ENTER:
        difficulty_page.items[difficulty_page.lcd_line0_index].function();
   41738:	00800174 	movhi	r2,5
   4173c:	108c1a04 	addi	r2,r2,12392
   41740:	10c00117 	ldw	r3,4(r2)
   41744:	00800174 	movhi	r2,5
   41748:	108c1a04 	addi	r2,r2,12392
   4174c:	10800217 	ldw	r2,8(r2)
   41750:	10800724 	muli	r2,r2,28
   41754:	1885883a 	add	r2,r3,r2
   41758:	10800417 	ldw	r2,16(r2)
   4175c:	103ee83a 	callr	r2
        lcd_print(1,1, "New difficulty");
   41760:	01800174 	movhi	r6,5
   41764:	318a1004 	addi	r6,r6,10304
   41768:	01400044 	movi	r5,1
   4176c:	01000044 	movi	r4,1
   41770:	00413300 	call	41330 <lcd_print>
        lcd_print(2,1, "is set.");
   41774:	01800174 	movhi	r6,5
   41778:	318a1404 	addi	r6,r6,10320
   4177c:	01400044 	movi	r5,1
   41780:	01000084 	movi	r4,2
   41784:	00413300 	call	41330 <lcd_print>
        usleep(2000000);
   41788:	010007f4 	movhi	r4,31
   4178c:	21212004 	addi	r4,r4,-31616
   41790:	004fe040 	call	4fe04 <usleep>
        break;
   41794:	00000106 	br	4179c <menu_change_difficulty+0xe4>
      default:
        break;
   41798:	0001883a 	nop
  }
}

void menu_change_difficulty() {
  USERINPUT input = 0;
  while (input != BTN_RED_BACK && input != BTN_GREEN_ENTER) {
   4179c:	e0bfff17 	ldw	r2,-4(fp)
   417a0:	108000e0 	cmpeqi	r2,r2,3
   417a4:	1000031e 	bne	r2,zero,417b4 <menu_change_difficulty+0xfc>
   417a8:	e0bfff17 	ldw	r2,-4(fp)
   417ac:	10800118 	cmpnei	r2,r2,4
   417b0:	103fc71e 	bne	r2,zero,416d0 <__alt_data_end+0xfffcf6d0>
        break;
      default:
        break;
    }
  }
  printf("Out of while loop\n");
   417b4:	01000174 	movhi	r4,5
   417b8:	210a1604 	addi	r4,r4,10328
   417bc:	0042d3c0 	call	42d3c <puts>
}
   417c0:	0001883a 	nop
   417c4:	e037883a 	mov	sp,fp
   417c8:	dfc00117 	ldw	ra,4(sp)
   417cc:	df000017 	ldw	fp,0(sp)
   417d0:	dec00204 	addi	sp,sp,8
   417d4:	f800283a 	ret

000417d8 <__divsi3>:
   417d8:	20001b16 	blt	r4,zero,41848 <__divsi3+0x70>
   417dc:	000f883a 	mov	r7,zero
   417e0:	28001616 	blt	r5,zero,4183c <__divsi3+0x64>
   417e4:	200d883a 	mov	r6,r4
   417e8:	29001a2e 	bgeu	r5,r4,41854 <__divsi3+0x7c>
   417ec:	00800804 	movi	r2,32
   417f0:	00c00044 	movi	r3,1
   417f4:	00000106 	br	417fc <__divsi3+0x24>
   417f8:	10000d26 	beq	r2,zero,41830 <__divsi3+0x58>
   417fc:	294b883a 	add	r5,r5,r5
   41800:	10bfffc4 	addi	r2,r2,-1
   41804:	18c7883a 	add	r3,r3,r3
   41808:	293ffb36 	bltu	r5,r4,417f8 <__alt_data_end+0xfffcf7f8>
   4180c:	0005883a 	mov	r2,zero
   41810:	18000726 	beq	r3,zero,41830 <__divsi3+0x58>
   41814:	0005883a 	mov	r2,zero
   41818:	31400236 	bltu	r6,r5,41824 <__divsi3+0x4c>
   4181c:	314dc83a 	sub	r6,r6,r5
   41820:	10c4b03a 	or	r2,r2,r3
   41824:	1806d07a 	srli	r3,r3,1
   41828:	280ad07a 	srli	r5,r5,1
   4182c:	183ffa1e 	bne	r3,zero,41818 <__alt_data_end+0xfffcf818>
   41830:	38000126 	beq	r7,zero,41838 <__divsi3+0x60>
   41834:	0085c83a 	sub	r2,zero,r2
   41838:	f800283a 	ret
   4183c:	014bc83a 	sub	r5,zero,r5
   41840:	39c0005c 	xori	r7,r7,1
   41844:	003fe706 	br	417e4 <__alt_data_end+0xfffcf7e4>
   41848:	0109c83a 	sub	r4,zero,r4
   4184c:	01c00044 	movi	r7,1
   41850:	003fe306 	br	417e0 <__alt_data_end+0xfffcf7e0>
   41854:	00c00044 	movi	r3,1
   41858:	003fee06 	br	41814 <__alt_data_end+0xfffcf814>

0004185c <__modsi3>:
   4185c:	20001716 	blt	r4,zero,418bc <__modsi3+0x60>
   41860:	000f883a 	mov	r7,zero
   41864:	2005883a 	mov	r2,r4
   41868:	28001216 	blt	r5,zero,418b4 <__modsi3+0x58>
   4186c:	2900162e 	bgeu	r5,r4,418c8 <__modsi3+0x6c>
   41870:	01800804 	movi	r6,32
   41874:	00c00044 	movi	r3,1
   41878:	00000106 	br	41880 <__modsi3+0x24>
   4187c:	30000a26 	beq	r6,zero,418a8 <__modsi3+0x4c>
   41880:	294b883a 	add	r5,r5,r5
   41884:	31bfffc4 	addi	r6,r6,-1
   41888:	18c7883a 	add	r3,r3,r3
   4188c:	293ffb36 	bltu	r5,r4,4187c <__alt_data_end+0xfffcf87c>
   41890:	18000526 	beq	r3,zero,418a8 <__modsi3+0x4c>
   41894:	1806d07a 	srli	r3,r3,1
   41898:	11400136 	bltu	r2,r5,418a0 <__modsi3+0x44>
   4189c:	1145c83a 	sub	r2,r2,r5
   418a0:	280ad07a 	srli	r5,r5,1
   418a4:	183ffb1e 	bne	r3,zero,41894 <__alt_data_end+0xfffcf894>
   418a8:	38000126 	beq	r7,zero,418b0 <__modsi3+0x54>
   418ac:	0085c83a 	sub	r2,zero,r2
   418b0:	f800283a 	ret
   418b4:	014bc83a 	sub	r5,zero,r5
   418b8:	003fec06 	br	4186c <__alt_data_end+0xfffcf86c>
   418bc:	0109c83a 	sub	r4,zero,r4
   418c0:	01c00044 	movi	r7,1
   418c4:	003fe706 	br	41864 <__alt_data_end+0xfffcf864>
   418c8:	00c00044 	movi	r3,1
   418cc:	003ff106 	br	41894 <__alt_data_end+0xfffcf894>

000418d0 <__udivsi3>:
   418d0:	200d883a 	mov	r6,r4
   418d4:	2900152e 	bgeu	r5,r4,4192c <__udivsi3+0x5c>
   418d8:	28001416 	blt	r5,zero,4192c <__udivsi3+0x5c>
   418dc:	00800804 	movi	r2,32
   418e0:	00c00044 	movi	r3,1
   418e4:	00000206 	br	418f0 <__udivsi3+0x20>
   418e8:	10000e26 	beq	r2,zero,41924 <__udivsi3+0x54>
   418ec:	28000516 	blt	r5,zero,41904 <__udivsi3+0x34>
   418f0:	294b883a 	add	r5,r5,r5
   418f4:	10bfffc4 	addi	r2,r2,-1
   418f8:	18c7883a 	add	r3,r3,r3
   418fc:	293ffa36 	bltu	r5,r4,418e8 <__alt_data_end+0xfffcf8e8>
   41900:	18000826 	beq	r3,zero,41924 <__udivsi3+0x54>
   41904:	0005883a 	mov	r2,zero
   41908:	31400236 	bltu	r6,r5,41914 <__udivsi3+0x44>
   4190c:	314dc83a 	sub	r6,r6,r5
   41910:	10c4b03a 	or	r2,r2,r3
   41914:	1806d07a 	srli	r3,r3,1
   41918:	280ad07a 	srli	r5,r5,1
   4191c:	183ffa1e 	bne	r3,zero,41908 <__alt_data_end+0xfffcf908>
   41920:	f800283a 	ret
   41924:	0005883a 	mov	r2,zero
   41928:	f800283a 	ret
   4192c:	00c00044 	movi	r3,1
   41930:	003ff406 	br	41904 <__alt_data_end+0xfffcf904>

00041934 <__umodsi3>:
   41934:	2005883a 	mov	r2,r4
   41938:	2900122e 	bgeu	r5,r4,41984 <__umodsi3+0x50>
   4193c:	28001116 	blt	r5,zero,41984 <__umodsi3+0x50>
   41940:	01800804 	movi	r6,32
   41944:	00c00044 	movi	r3,1
   41948:	00000206 	br	41954 <__umodsi3+0x20>
   4194c:	30000c26 	beq	r6,zero,41980 <__umodsi3+0x4c>
   41950:	28000516 	blt	r5,zero,41968 <__umodsi3+0x34>
   41954:	294b883a 	add	r5,r5,r5
   41958:	31bfffc4 	addi	r6,r6,-1
   4195c:	18c7883a 	add	r3,r3,r3
   41960:	293ffa36 	bltu	r5,r4,4194c <__alt_data_end+0xfffcf94c>
   41964:	18000626 	beq	r3,zero,41980 <__umodsi3+0x4c>
   41968:	1806d07a 	srli	r3,r3,1
   4196c:	11400136 	bltu	r2,r5,41974 <__umodsi3+0x40>
   41970:	1145c83a 	sub	r2,r2,r5
   41974:	280ad07a 	srli	r5,r5,1
   41978:	183ffb1e 	bne	r3,zero,41968 <__alt_data_end+0xfffcf968>
   4197c:	f800283a 	ret
   41980:	f800283a 	ret
   41984:	00c00044 	movi	r3,1
   41988:	003ff706 	br	41968 <__alt_data_end+0xfffcf968>

0004198c <_fopen_r>:
   4198c:	defffa04 	addi	sp,sp,-24
   41990:	3005883a 	mov	r2,r6
   41994:	dcc00415 	stw	r19,16(sp)
   41998:	d80d883a 	mov	r6,sp
   4199c:	2827883a 	mov	r19,r5
   419a0:	100b883a 	mov	r5,r2
   419a4:	dc800315 	stw	r18,12(sp)
   419a8:	dfc00515 	stw	ra,20(sp)
   419ac:	dc400215 	stw	r17,8(sp)
   419b0:	dc000115 	stw	r16,4(sp)
   419b4:	2025883a 	mov	r18,r4
   419b8:	00476f00 	call	476f0 <__sflags>
   419bc:	10002726 	beq	r2,zero,41a5c <_fopen_r+0xd0>
   419c0:	9009883a 	mov	r4,r18
   419c4:	1023883a 	mov	r17,r2
   419c8:	00475700 	call	47570 <__sfp>
   419cc:	1021883a 	mov	r16,r2
   419d0:	10002226 	beq	r2,zero,41a5c <_fopen_r+0xd0>
   419d4:	d9800017 	ldw	r6,0(sp)
   419d8:	01c06d84 	movi	r7,438
   419dc:	980b883a 	mov	r5,r19
   419e0:	9009883a 	mov	r4,r18
   419e4:	0042bb00 	call	42bb0 <_open_r>
   419e8:	10001916 	blt	r2,zero,41a50 <_fopen_r+0xc4>
   419ec:	8080038d 	sth	r2,14(r16)
   419f0:	00800134 	movhi	r2,4
   419f4:	108c0404 	addi	r2,r2,12304
   419f8:	80800815 	stw	r2,32(r16)
   419fc:	00800134 	movhi	r2,4
   41a00:	108c1b04 	addi	r2,r2,12396
   41a04:	80800915 	stw	r2,36(r16)
   41a08:	00800134 	movhi	r2,4
   41a0c:	108c3a04 	addi	r2,r2,12520
   41a10:	80800a15 	stw	r2,40(r16)
   41a14:	00800134 	movhi	r2,4
   41a18:	108c5104 	addi	r2,r2,12612
   41a1c:	8440030d 	sth	r17,12(r16)
   41a20:	84000715 	stw	r16,28(r16)
   41a24:	80800b15 	stw	r2,44(r16)
   41a28:	8c40400c 	andi	r17,r17,256
   41a2c:	88000d1e 	bne	r17,zero,41a64 <_fopen_r+0xd8>
   41a30:	8005883a 	mov	r2,r16
   41a34:	dfc00517 	ldw	ra,20(sp)
   41a38:	dcc00417 	ldw	r19,16(sp)
   41a3c:	dc800317 	ldw	r18,12(sp)
   41a40:	dc400217 	ldw	r17,8(sp)
   41a44:	dc000117 	ldw	r16,4(sp)
   41a48:	dec00604 	addi	sp,sp,24
   41a4c:	f800283a 	ret
   41a50:	00476b00 	call	476b0 <__sfp_lock_acquire>
   41a54:	8000030d 	sth	zero,12(r16)
   41a58:	00476b40 	call	476b4 <__sfp_lock_release>
   41a5c:	0005883a 	mov	r2,zero
   41a60:	003ff406 	br	41a34 <__alt_data_end+0xfffcfa34>
   41a64:	01c00084 	movi	r7,2
   41a68:	000d883a 	mov	r6,zero
   41a6c:	800b883a 	mov	r5,r16
   41a70:	9009883a 	mov	r4,r18
   41a74:	0041ae40 	call	41ae4 <_fseek_r>
   41a78:	8005883a 	mov	r2,r16
   41a7c:	003fed06 	br	41a34 <__alt_data_end+0xfffcfa34>

00041a80 <fopen>:
   41a80:	00800174 	movhi	r2,5
   41a84:	10931604 	addi	r2,r2,19544
   41a88:	280d883a 	mov	r6,r5
   41a8c:	200b883a 	mov	r5,r4
   41a90:	11000017 	ldw	r4,0(r2)
   41a94:	004198c1 	jmpi	4198c <_fopen_r>

00041a98 <_fprintf_r>:
   41a98:	defffe04 	addi	sp,sp,-8
   41a9c:	2809883a 	mov	r4,r5
   41aa0:	300b883a 	mov	r5,r6
   41aa4:	dfc00015 	stw	ra,0(sp)
   41aa8:	d9c00115 	stw	r7,4(sp)
   41aac:	d9800104 	addi	r6,sp,4
   41ab0:	00455400 	call	45540 <__vfprintf_internal>
   41ab4:	dfc00017 	ldw	ra,0(sp)
   41ab8:	dec00204 	addi	sp,sp,8
   41abc:	f800283a 	ret

00041ac0 <fprintf>:
   41ac0:	defffd04 	addi	sp,sp,-12
   41ac4:	dfc00015 	stw	ra,0(sp)
   41ac8:	d9800115 	stw	r6,4(sp)
   41acc:	d9c00215 	stw	r7,8(sp)
   41ad0:	d9800104 	addi	r6,sp,4
   41ad4:	00455400 	call	45540 <__vfprintf_internal>
   41ad8:	dfc00017 	ldw	ra,0(sp)
   41adc:	dec00304 	addi	sp,sp,12
   41ae0:	f800283a 	ret

00041ae4 <_fseek_r>:
   41ae4:	0041b041 	jmpi	41b04 <_fseeko_r>

00041ae8 <fseek>:
   41ae8:	00800174 	movhi	r2,5
   41aec:	10931604 	addi	r2,r2,19544
   41af0:	300f883a 	mov	r7,r6
   41af4:	280d883a 	mov	r6,r5
   41af8:	200b883a 	mov	r5,r4
   41afc:	11000017 	ldw	r4,0(r2)
   41b00:	0041b041 	jmpi	41b04 <_fseeko_r>

00041b04 <_fseeko_r>:
   41b04:	deffe804 	addi	sp,sp,-96
   41b08:	dd401415 	stw	r21,80(sp)
   41b0c:	dc801115 	stw	r18,68(sp)
   41b10:	dc401015 	stw	r17,64(sp)
   41b14:	dc000f15 	stw	r16,60(sp)
   41b18:	dfc01715 	stw	ra,92(sp)
   41b1c:	ddc01615 	stw	r23,88(sp)
   41b20:	dd801515 	stw	r22,84(sp)
   41b24:	dd001315 	stw	r20,76(sp)
   41b28:	dcc01215 	stw	r19,72(sp)
   41b2c:	2023883a 	mov	r17,r4
   41b30:	2821883a 	mov	r16,r5
   41b34:	302b883a 	mov	r21,r6
   41b38:	3825883a 	mov	r18,r7
   41b3c:	20000226 	beq	r4,zero,41b48 <_fseeko_r+0x44>
   41b40:	20800e17 	ldw	r2,56(r4)
   41b44:	10005a26 	beq	r2,zero,41cb0 <_fseeko_r+0x1ac>
   41b48:	8080030b 	ldhu	r2,12(r16)
   41b4c:	00c04204 	movi	r3,264
   41b50:	1080420c 	andi	r2,r2,264
   41b54:	10c05b26 	beq	r2,r3,41cc4 <_fseeko_r+0x1c0>
   41b58:	85000a17 	ldw	r20,40(r16)
   41b5c:	a000f626 	beq	r20,zero,41f38 <_fseeko_r+0x434>
   41b60:	00800044 	movi	r2,1
   41b64:	90803e26 	beq	r18,r2,41c60 <_fseeko_r+0x15c>
   41b68:	00800084 	movi	r2,2
   41b6c:	90801026 	beq	r18,r2,41bb0 <_fseeko_r+0xac>
   41b70:	90000f26 	beq	r18,zero,41bb0 <_fseeko_r+0xac>
   41b74:	00800584 	movi	r2,22
   41b78:	88800015 	stw	r2,0(r17)
   41b7c:	04ffffc4 	movi	r19,-1
   41b80:	9805883a 	mov	r2,r19
   41b84:	dfc01717 	ldw	ra,92(sp)
   41b88:	ddc01617 	ldw	r23,88(sp)
   41b8c:	dd801517 	ldw	r22,84(sp)
   41b90:	dd401417 	ldw	r21,80(sp)
   41b94:	dd001317 	ldw	r20,76(sp)
   41b98:	dcc01217 	ldw	r19,72(sp)
   41b9c:	dc801117 	ldw	r18,68(sp)
   41ba0:	dc401017 	ldw	r17,64(sp)
   41ba4:	dc000f17 	ldw	r16,60(sp)
   41ba8:	dec01804 	addi	sp,sp,96
   41bac:	f800283a 	ret
   41bb0:	80800417 	ldw	r2,16(r16)
   41bb4:	002f883a 	mov	r23,zero
   41bb8:	0027883a 	mov	r19,zero
   41bbc:	1000cb26 	beq	r2,zero,41eec <_fseeko_r+0x3e8>
   41bc0:	8080030b 	ldhu	r2,12(r16)
   41bc4:	10c2068c 	andi	r3,r2,2074
   41bc8:	1800071e 	bne	r3,zero,41be8 <_fseeko_r+0xe4>
   41bcc:	10c1000c 	andi	r3,r2,1024
   41bd0:	1800451e 	bne	r3,zero,41ce8 <_fseeko_r+0x1e4>
   41bd4:	00c00134 	movhi	r3,4
   41bd8:	18cc3a04 	addi	r3,r3,12520
   41bdc:	a0c0b726 	beq	r20,r3,41ebc <_fseeko_r+0x3b8>
   41be0:	10820014 	ori	r2,r2,2048
   41be4:	8080030d 	sth	r2,12(r16)
   41be8:	800b883a 	mov	r5,r16
   41bec:	8809883a 	mov	r4,r17
   41bf0:	00472c40 	call	472c4 <_fflush_r>
   41bf4:	1027883a 	mov	r19,r2
   41bf8:	103fe01e 	bne	r2,zero,41b7c <__alt_data_end+0xfffcfb7c>
   41bfc:	81400717 	ldw	r5,28(r16)
   41c00:	900f883a 	mov	r7,r18
   41c04:	a80d883a 	mov	r6,r21
   41c08:	8809883a 	mov	r4,r17
   41c0c:	a03ee83a 	callr	r20
   41c10:	00ffffc4 	movi	r3,-1
   41c14:	10ffd926 	beq	r2,r3,41b7c <__alt_data_end+0xfffcfb7c>
   41c18:	81400c17 	ldw	r5,48(r16)
   41c1c:	28000526 	beq	r5,zero,41c34 <_fseeko_r+0x130>
   41c20:	80801004 	addi	r2,r16,64
   41c24:	28800226 	beq	r5,r2,41c30 <_fseeko_r+0x12c>
   41c28:	8809883a 	mov	r4,r17
   41c2c:	00478c00 	call	478c0 <_free_r>
   41c30:	80000c15 	stw	zero,48(r16)
   41c34:	8080030b 	ldhu	r2,12(r16)
   41c38:	80c00417 	ldw	r3,16(r16)
   41c3c:	80000115 	stw	zero,4(r16)
   41c40:	10bdf7cc 	andi	r2,r2,63455
   41c44:	80c00015 	stw	r3,0(r16)
   41c48:	8080030d 	sth	r2,12(r16)
   41c4c:	01800204 	movi	r6,8
   41c50:	000b883a 	mov	r5,zero
   41c54:	81001704 	addi	r4,r16,92
   41c58:	0042a880 	call	42a88 <memset>
   41c5c:	003fc806 	br	41b80 <__alt_data_end+0xfffcfb80>
   41c60:	800b883a 	mov	r5,r16
   41c64:	8809883a 	mov	r4,r17
   41c68:	00472c40 	call	472c4 <_fflush_r>
   41c6c:	8080030b 	ldhu	r2,12(r16)
   41c70:	10c4000c 	andi	r3,r2,4096
   41c74:	18008726 	beq	r3,zero,41e94 <_fseeko_r+0x390>
   41c78:	84c01417 	ldw	r19,80(r16)
   41c7c:	10c0010c 	andi	r3,r2,4
   41c80:	1800431e 	bne	r3,zero,41d90 <_fseeko_r+0x28c>
   41c84:	1080020c 	andi	r2,r2,8
   41c88:	10008026 	beq	r2,zero,41e8c <_fseeko_r+0x388>
   41c8c:	80c00017 	ldw	r3,0(r16)
   41c90:	80800417 	ldw	r2,16(r16)
   41c94:	18000226 	beq	r3,zero,41ca0 <_fseeko_r+0x19c>
   41c98:	1887c83a 	sub	r3,r3,r2
   41c9c:	98e7883a 	add	r19,r19,r3
   41ca0:	aceb883a 	add	r21,r21,r19
   41ca4:	05c00044 	movi	r23,1
   41ca8:	0025883a 	mov	r18,zero
   41cac:	003fc306 	br	41bbc <__alt_data_end+0xfffcfbbc>
   41cb0:	00476a00 	call	476a0 <__sinit>
   41cb4:	8080030b 	ldhu	r2,12(r16)
   41cb8:	00c04204 	movi	r3,264
   41cbc:	1080420c 	andi	r2,r2,264
   41cc0:	10ffa51e 	bne	r2,r3,41b58 <__alt_data_end+0xfffcfb58>
   41cc4:	800b883a 	mov	r5,r16
   41cc8:	8809883a 	mov	r4,r17
   41ccc:	00472c40 	call	472c4 <_fflush_r>
   41cd0:	003fa106 	br	41b58 <__alt_data_end+0xfffcfb58>
   41cd4:	8080030b 	ldhu	r2,12(r16)
   41cd8:	00c10004 	movi	r3,1024
   41cdc:	80c01315 	stw	r3,76(r16)
   41ce0:	10c4b03a 	or	r2,r2,r3
   41ce4:	8080030d 	sth	r2,12(r16)
   41ce8:	9000311e 	bne	r18,zero,41db0 <_fseeko_r+0x2ac>
   41cec:	a82d883a 	mov	r22,r21
   41cf0:	b800371e 	bne	r23,zero,41dd0 <_fseeko_r+0x2cc>
   41cf4:	8080030b 	ldhu	r2,12(r16)
   41cf8:	1084000c 	andi	r2,r2,4096
   41cfc:	10007f26 	beq	r2,zero,41efc <_fseeko_r+0x3f8>
   41d00:	80801417 	ldw	r2,80(r16)
   41d04:	81800117 	ldw	r6,4(r16)
   41d08:	81400c17 	ldw	r5,48(r16)
   41d0c:	11a7c83a 	sub	r19,r2,r6
   41d10:	28008226 	beq	r5,zero,41f1c <_fseeko_r+0x418>
   41d14:	81c00f17 	ldw	r7,60(r16)
   41d18:	99e7c83a 	sub	r19,r19,r7
   41d1c:	81000e17 	ldw	r4,56(r16)
   41d20:	80800417 	ldw	r2,16(r16)
   41d24:	99a7883a 	add	r19,r19,r6
   41d28:	2087c83a 	sub	r3,r4,r2
   41d2c:	98e7c83a 	sub	r19,r19,r3
   41d30:	38c7883a 	add	r3,r7,r3
   41d34:	b4c02b16 	blt	r22,r19,41de4 <_fseeko_r+0x2e0>
   41d38:	98c9883a 	add	r4,r19,r3
   41d3c:	b100292e 	bgeu	r22,r4,41de4 <_fseeko_r+0x2e0>
   41d40:	b4e7c83a 	sub	r19,r22,r19
   41d44:	14c5883a 	add	r2,r2,r19
   41d48:	1ce7c83a 	sub	r19,r3,r19
   41d4c:	80800015 	stw	r2,0(r16)
   41d50:	84c00115 	stw	r19,4(r16)
   41d54:	28000526 	beq	r5,zero,41d6c <_fseeko_r+0x268>
   41d58:	80801004 	addi	r2,r16,64
   41d5c:	28800226 	beq	r5,r2,41d68 <_fseeko_r+0x264>
   41d60:	8809883a 	mov	r4,r17
   41d64:	00478c00 	call	478c0 <_free_r>
   41d68:	80000c15 	stw	zero,48(r16)
   41d6c:	8080030b 	ldhu	r2,12(r16)
   41d70:	01800204 	movi	r6,8
   41d74:	000b883a 	mov	r5,zero
   41d78:	10bff7cc 	andi	r2,r2,65503
   41d7c:	8080030d 	sth	r2,12(r16)
   41d80:	81001704 	addi	r4,r16,92
   41d84:	0042a880 	call	42a88 <memset>
   41d88:	0027883a 	mov	r19,zero
   41d8c:	003f7c06 	br	41b80 <__alt_data_end+0xfffcfb80>
   41d90:	80c00117 	ldw	r3,4(r16)
   41d94:	80800c17 	ldw	r2,48(r16)
   41d98:	98e7c83a 	sub	r19,r19,r3
   41d9c:	10003b26 	beq	r2,zero,41e8c <_fseeko_r+0x388>
   41da0:	80c00f17 	ldw	r3,60(r16)
   41da4:	80800417 	ldw	r2,16(r16)
   41da8:	98e7c83a 	sub	r19,r19,r3
   41dac:	003fbc06 	br	41ca0 <__alt_data_end+0xfffcfca0>
   41db0:	8140038f 	ldh	r5,14(r16)
   41db4:	d80d883a 	mov	r6,sp
   41db8:	8809883a 	mov	r4,r17
   41dbc:	0041f640 	call	41f64 <_fstat_r>
   41dc0:	103f891e 	bne	r2,zero,41be8 <__alt_data_end+0xfffcfbe8>
   41dc4:	dd800417 	ldw	r22,16(sp)
   41dc8:	adad883a 	add	r22,r21,r22
   41dcc:	b83fc926 	beq	r23,zero,41cf4 <__alt_data_end+0xfffcfcf4>
   41dd0:	81400c17 	ldw	r5,48(r16)
   41dd4:	81800117 	ldw	r6,4(r16)
   41dd8:	28005026 	beq	r5,zero,41f1c <_fseeko_r+0x418>
   41ddc:	81c00f17 	ldw	r7,60(r16)
   41de0:	003fce06 	br	41d1c <__alt_data_end+0xfffcfd1c>
   41de4:	84c01317 	ldw	r19,76(r16)
   41de8:	81400717 	ldw	r5,28(r16)
   41dec:	000f883a 	mov	r7,zero
   41df0:	04e7c83a 	sub	r19,zero,r19
   41df4:	9da6703a 	and	r19,r19,r22
   41df8:	980d883a 	mov	r6,r19
   41dfc:	8809883a 	mov	r4,r17
   41e00:	a03ee83a 	callr	r20
   41e04:	00ffffc4 	movi	r3,-1
   41e08:	10ff7726 	beq	r2,r3,41be8 <__alt_data_end+0xfffcfbe8>
   41e0c:	80800417 	ldw	r2,16(r16)
   41e10:	81400c17 	ldw	r5,48(r16)
   41e14:	80000115 	stw	zero,4(r16)
   41e18:	80800015 	stw	r2,0(r16)
   41e1c:	28000526 	beq	r5,zero,41e34 <_fseeko_r+0x330>
   41e20:	80801004 	addi	r2,r16,64
   41e24:	28800226 	beq	r5,r2,41e30 <_fseeko_r+0x32c>
   41e28:	8809883a 	mov	r4,r17
   41e2c:	00478c00 	call	478c0 <_free_r>
   41e30:	80000c15 	stw	zero,48(r16)
   41e34:	8080030b 	ldhu	r2,12(r16)
   41e38:	b4e7c83a 	sub	r19,r22,r19
   41e3c:	10bff7cc 	andi	r2,r2,65503
   41e40:	8080030d 	sth	r2,12(r16)
   41e44:	98000b26 	beq	r19,zero,41e74 <_fseeko_r+0x370>
   41e48:	800b883a 	mov	r5,r16
   41e4c:	8809883a 	mov	r4,r17
   41e50:	0042de80 	call	42de8 <__srefill_r>
   41e54:	103f641e 	bne	r2,zero,41be8 <__alt_data_end+0xfffcfbe8>
   41e58:	80800117 	ldw	r2,4(r16)
   41e5c:	14ff6236 	bltu	r2,r19,41be8 <__alt_data_end+0xfffcfbe8>
   41e60:	80c00017 	ldw	r3,0(r16)
   41e64:	14c5c83a 	sub	r2,r2,r19
   41e68:	80800115 	stw	r2,4(r16)
   41e6c:	1ce7883a 	add	r19,r3,r19
   41e70:	84c00015 	stw	r19,0(r16)
   41e74:	01800204 	movi	r6,8
   41e78:	000b883a 	mov	r5,zero
   41e7c:	81001704 	addi	r4,r16,92
   41e80:	0042a880 	call	42a88 <memset>
   41e84:	0027883a 	mov	r19,zero
   41e88:	003f3d06 	br	41b80 <__alt_data_end+0xfffcfb80>
   41e8c:	80800417 	ldw	r2,16(r16)
   41e90:	003f8306 	br	41ca0 <__alt_data_end+0xfffcfca0>
   41e94:	81400717 	ldw	r5,28(r16)
   41e98:	900f883a 	mov	r7,r18
   41e9c:	000d883a 	mov	r6,zero
   41ea0:	8809883a 	mov	r4,r17
   41ea4:	a03ee83a 	callr	r20
   41ea8:	1027883a 	mov	r19,r2
   41eac:	00bfffc4 	movi	r2,-1
   41eb0:	98bf3226 	beq	r19,r2,41b7c <__alt_data_end+0xfffcfb7c>
   41eb4:	8080030b 	ldhu	r2,12(r16)
   41eb8:	003f7006 	br	41c7c <__alt_data_end+0xfffcfc7c>
   41ebc:	8140038f 	ldh	r5,14(r16)
   41ec0:	283f4716 	blt	r5,zero,41be0 <__alt_data_end+0xfffcfbe0>
   41ec4:	d80d883a 	mov	r6,sp
   41ec8:	8809883a 	mov	r4,r17
   41ecc:	0041f640 	call	41f64 <_fstat_r>
   41ed0:	1000041e 	bne	r2,zero,41ee4 <_fseeko_r+0x3e0>
   41ed4:	d8800117 	ldw	r2,4(sp)
   41ed8:	00e00014 	movui	r3,32768
   41edc:	10bc000c 	andi	r2,r2,61440
   41ee0:	10ff7c26 	beq	r2,r3,41cd4 <__alt_data_end+0xfffcfcd4>
   41ee4:	8080030b 	ldhu	r2,12(r16)
   41ee8:	003f3d06 	br	41be0 <__alt_data_end+0xfffcfbe0>
   41eec:	800b883a 	mov	r5,r16
   41ef0:	8809883a 	mov	r4,r17
   41ef4:	00420c00 	call	420c0 <__smakebuf_r>
   41ef8:	003f3106 	br	41bc0 <__alt_data_end+0xfffcfbc0>
   41efc:	81400717 	ldw	r5,28(r16)
   41f00:	01c00044 	movi	r7,1
   41f04:	000d883a 	mov	r6,zero
   41f08:	8809883a 	mov	r4,r17
   41f0c:	a03ee83a 	callr	r20
   41f10:	00ffffc4 	movi	r3,-1
   41f14:	10ff7b1e 	bne	r2,r3,41d04 <__alt_data_end+0xfffcfd04>
   41f18:	003f3306 	br	41be8 <__alt_data_end+0xfffcfbe8>
   41f1c:	80c00017 	ldw	r3,0(r16)
   41f20:	80800417 	ldw	r2,16(r16)
   41f24:	000b883a 	mov	r5,zero
   41f28:	1887c83a 	sub	r3,r3,r2
   41f2c:	98e7c83a 	sub	r19,r19,r3
   41f30:	30c7883a 	add	r3,r6,r3
   41f34:	003f7f06 	br	41d34 <__alt_data_end+0xfffcfd34>
   41f38:	00800744 	movi	r2,29
   41f3c:	88800015 	stw	r2,0(r17)
   41f40:	04ffffc4 	movi	r19,-1
   41f44:	003f0e06 	br	41b80 <__alt_data_end+0xfffcfb80>

00041f48 <fseeko>:
   41f48:	00800174 	movhi	r2,5
   41f4c:	10931604 	addi	r2,r2,19544
   41f50:	300f883a 	mov	r7,r6
   41f54:	280d883a 	mov	r6,r5
   41f58:	200b883a 	mov	r5,r4
   41f5c:	11000017 	ldw	r4,0(r2)
   41f60:	0041b041 	jmpi	41b04 <_fseeko_r>

00041f64 <_fstat_r>:
   41f64:	defffd04 	addi	sp,sp,-12
   41f68:	2805883a 	mov	r2,r5
   41f6c:	dc000015 	stw	r16,0(sp)
   41f70:	04000174 	movhi	r16,5
   41f74:	dc400115 	stw	r17,4(sp)
   41f78:	841ad804 	addi	r16,r16,27488
   41f7c:	2023883a 	mov	r17,r4
   41f80:	300b883a 	mov	r5,r6
   41f84:	1009883a 	mov	r4,r2
   41f88:	dfc00215 	stw	ra,8(sp)
   41f8c:	80000015 	stw	zero,0(r16)
   41f90:	004eedc0 	call	4eedc <fstat>
   41f94:	00ffffc4 	movi	r3,-1
   41f98:	10c00526 	beq	r2,r3,41fb0 <_fstat_r+0x4c>
   41f9c:	dfc00217 	ldw	ra,8(sp)
   41fa0:	dc400117 	ldw	r17,4(sp)
   41fa4:	dc000017 	ldw	r16,0(sp)
   41fa8:	dec00304 	addi	sp,sp,12
   41fac:	f800283a 	ret
   41fb0:	80c00017 	ldw	r3,0(r16)
   41fb4:	183ff926 	beq	r3,zero,41f9c <__alt_data_end+0xfffcff9c>
   41fb8:	88c00015 	stw	r3,0(r17)
   41fbc:	003ff706 	br	41f9c <__alt_data_end+0xfffcff9c>

00041fc0 <_fwrite_r>:
   41fc0:	defff504 	addi	sp,sp,-44
   41fc4:	dc800815 	stw	r18,32(sp)
   41fc8:	39a5383a 	mul	r18,r7,r6
   41fcc:	d8800304 	addi	r2,sp,12
   41fd0:	d8800015 	stw	r2,0(sp)
   41fd4:	00800044 	movi	r2,1
   41fd8:	dcc00915 	stw	r19,36(sp)
   41fdc:	dc400715 	stw	r17,28(sp)
   41fe0:	dc000615 	stw	r16,24(sp)
   41fe4:	d9400315 	stw	r5,12(sp)
   41fe8:	dfc00a15 	stw	ra,40(sp)
   41fec:	dc800415 	stw	r18,16(sp)
   41ff0:	dc800215 	stw	r18,8(sp)
   41ff4:	d8800115 	stw	r2,4(sp)
   41ff8:	3027883a 	mov	r19,r6
   41ffc:	3821883a 	mov	r16,r7
   42000:	2023883a 	mov	r17,r4
   42004:	d9400b17 	ldw	r5,44(sp)
   42008:	20000226 	beq	r4,zero,42014 <_fwrite_r+0x54>
   4200c:	20800e17 	ldw	r2,56(r4)
   42010:	10001a26 	beq	r2,zero,4207c <_fwrite_r+0xbc>
   42014:	2880030b 	ldhu	r2,12(r5)
   42018:	10c8000c 	andi	r3,r2,8192
   4201c:	1800061e 	bne	r3,zero,42038 <_fwrite_r+0x78>
   42020:	29001917 	ldw	r4,100(r5)
   42024:	00f7ffc4 	movi	r3,-8193
   42028:	10880014 	ori	r2,r2,8192
   4202c:	20c6703a 	and	r3,r4,r3
   42030:	2880030d 	sth	r2,12(r5)
   42034:	28c01915 	stw	r3,100(r5)
   42038:	d80d883a 	mov	r6,sp
   4203c:	8809883a 	mov	r4,r17
   42040:	0047bd00 	call	47bd0 <__sfvwrite_r>
   42044:	10000b26 	beq	r2,zero,42074 <_fwrite_r+0xb4>
   42048:	d9000217 	ldw	r4,8(sp)
   4204c:	980b883a 	mov	r5,r19
   42050:	9109c83a 	sub	r4,r18,r4
   42054:	00418d00 	call	418d0 <__udivsi3>
   42058:	dfc00a17 	ldw	ra,40(sp)
   4205c:	dcc00917 	ldw	r19,36(sp)
   42060:	dc800817 	ldw	r18,32(sp)
   42064:	dc400717 	ldw	r17,28(sp)
   42068:	dc000617 	ldw	r16,24(sp)
   4206c:	dec00b04 	addi	sp,sp,44
   42070:	f800283a 	ret
   42074:	8005883a 	mov	r2,r16
   42078:	003ff706 	br	42058 <__alt_data_end+0xfffd0058>
   4207c:	d9400515 	stw	r5,20(sp)
   42080:	00476a00 	call	476a0 <__sinit>
   42084:	d9400517 	ldw	r5,20(sp)
   42088:	003fe206 	br	42014 <__alt_data_end+0xfffd0014>

0004208c <fwrite>:
   4208c:	defffe04 	addi	sp,sp,-8
   42090:	00800174 	movhi	r2,5
   42094:	d9c00015 	stw	r7,0(sp)
   42098:	10931604 	addi	r2,r2,19544
   4209c:	300f883a 	mov	r7,r6
   420a0:	280d883a 	mov	r6,r5
   420a4:	200b883a 	mov	r5,r4
   420a8:	11000017 	ldw	r4,0(r2)
   420ac:	dfc00115 	stw	ra,4(sp)
   420b0:	0041fc00 	call	41fc0 <_fwrite_r>
   420b4:	dfc00117 	ldw	ra,4(sp)
   420b8:	dec00204 	addi	sp,sp,8
   420bc:	f800283a 	ret

000420c0 <__smakebuf_r>:
   420c0:	2880030b 	ldhu	r2,12(r5)
   420c4:	10c0008c 	andi	r3,r2,2
   420c8:	1800411e 	bne	r3,zero,421d0 <__smakebuf_r+0x110>
   420cc:	deffec04 	addi	sp,sp,-80
   420d0:	dc000f15 	stw	r16,60(sp)
   420d4:	2821883a 	mov	r16,r5
   420d8:	2940038f 	ldh	r5,14(r5)
   420dc:	dc401015 	stw	r17,64(sp)
   420e0:	dfc01315 	stw	ra,76(sp)
   420e4:	dcc01215 	stw	r19,72(sp)
   420e8:	dc801115 	stw	r18,68(sp)
   420ec:	2023883a 	mov	r17,r4
   420f0:	28001c16 	blt	r5,zero,42164 <__smakebuf_r+0xa4>
   420f4:	d80d883a 	mov	r6,sp
   420f8:	0041f640 	call	41f64 <_fstat_r>
   420fc:	10001816 	blt	r2,zero,42160 <__smakebuf_r+0xa0>
   42100:	d8800117 	ldw	r2,4(sp)
   42104:	00e00014 	movui	r3,32768
   42108:	10bc000c 	andi	r2,r2,61440
   4210c:	14c80020 	cmpeqi	r19,r2,8192
   42110:	10c03726 	beq	r2,r3,421f0 <__smakebuf_r+0x130>
   42114:	80c0030b 	ldhu	r3,12(r16)
   42118:	18c20014 	ori	r3,r3,2048
   4211c:	80c0030d 	sth	r3,12(r16)
   42120:	00c80004 	movi	r3,8192
   42124:	10c0521e 	bne	r2,r3,42270 <__smakebuf_r+0x1b0>
   42128:	8140038f 	ldh	r5,14(r16)
   4212c:	8809883a 	mov	r4,r17
   42130:	00482700 	call	48270 <_isatty_r>
   42134:	10004c26 	beq	r2,zero,42268 <__smakebuf_r+0x1a8>
   42138:	8080030b 	ldhu	r2,12(r16)
   4213c:	80c010c4 	addi	r3,r16,67
   42140:	80c00015 	stw	r3,0(r16)
   42144:	10800054 	ori	r2,r2,1
   42148:	8080030d 	sth	r2,12(r16)
   4214c:	00800044 	movi	r2,1
   42150:	80c00415 	stw	r3,16(r16)
   42154:	80800515 	stw	r2,20(r16)
   42158:	04810004 	movi	r18,1024
   4215c:	00000706 	br	4217c <__smakebuf_r+0xbc>
   42160:	8080030b 	ldhu	r2,12(r16)
   42164:	10c0200c 	andi	r3,r2,128
   42168:	18001f1e 	bne	r3,zero,421e8 <__smakebuf_r+0x128>
   4216c:	04810004 	movi	r18,1024
   42170:	10820014 	ori	r2,r2,2048
   42174:	8080030d 	sth	r2,12(r16)
   42178:	0027883a 	mov	r19,zero
   4217c:	900b883a 	mov	r5,r18
   42180:	8809883a 	mov	r4,r17
   42184:	004227c0 	call	4227c <_malloc_r>
   42188:	10002c26 	beq	r2,zero,4223c <__smakebuf_r+0x17c>
   4218c:	80c0030b 	ldhu	r3,12(r16)
   42190:	01000134 	movhi	r4,4
   42194:	211cd604 	addi	r4,r4,29528
   42198:	89000f15 	stw	r4,60(r17)
   4219c:	18c02014 	ori	r3,r3,128
   421a0:	80c0030d 	sth	r3,12(r16)
   421a4:	80800015 	stw	r2,0(r16)
   421a8:	80800415 	stw	r2,16(r16)
   421ac:	84800515 	stw	r18,20(r16)
   421b0:	98001a1e 	bne	r19,zero,4221c <__smakebuf_r+0x15c>
   421b4:	dfc01317 	ldw	ra,76(sp)
   421b8:	dcc01217 	ldw	r19,72(sp)
   421bc:	dc801117 	ldw	r18,68(sp)
   421c0:	dc401017 	ldw	r17,64(sp)
   421c4:	dc000f17 	ldw	r16,60(sp)
   421c8:	dec01404 	addi	sp,sp,80
   421cc:	f800283a 	ret
   421d0:	288010c4 	addi	r2,r5,67
   421d4:	28800015 	stw	r2,0(r5)
   421d8:	28800415 	stw	r2,16(r5)
   421dc:	00800044 	movi	r2,1
   421e0:	28800515 	stw	r2,20(r5)
   421e4:	f800283a 	ret
   421e8:	04801004 	movi	r18,64
   421ec:	003fe006 	br	42170 <__alt_data_end+0xfffd0170>
   421f0:	81000a17 	ldw	r4,40(r16)
   421f4:	00c00134 	movhi	r3,4
   421f8:	18cc3a04 	addi	r3,r3,12520
   421fc:	20ffc51e 	bne	r4,r3,42114 <__alt_data_end+0xfffd0114>
   42200:	8080030b 	ldhu	r2,12(r16)
   42204:	04810004 	movi	r18,1024
   42208:	84801315 	stw	r18,76(r16)
   4220c:	1484b03a 	or	r2,r2,r18
   42210:	8080030d 	sth	r2,12(r16)
   42214:	0027883a 	mov	r19,zero
   42218:	003fd806 	br	4217c <__alt_data_end+0xfffd017c>
   4221c:	8140038f 	ldh	r5,14(r16)
   42220:	8809883a 	mov	r4,r17
   42224:	00482700 	call	48270 <_isatty_r>
   42228:	103fe226 	beq	r2,zero,421b4 <__alt_data_end+0xfffd01b4>
   4222c:	8080030b 	ldhu	r2,12(r16)
   42230:	10800054 	ori	r2,r2,1
   42234:	8080030d 	sth	r2,12(r16)
   42238:	003fde06 	br	421b4 <__alt_data_end+0xfffd01b4>
   4223c:	8080030b 	ldhu	r2,12(r16)
   42240:	10c0800c 	andi	r3,r2,512
   42244:	183fdb1e 	bne	r3,zero,421b4 <__alt_data_end+0xfffd01b4>
   42248:	10800094 	ori	r2,r2,2
   4224c:	80c010c4 	addi	r3,r16,67
   42250:	8080030d 	sth	r2,12(r16)
   42254:	00800044 	movi	r2,1
   42258:	80c00015 	stw	r3,0(r16)
   4225c:	80c00415 	stw	r3,16(r16)
   42260:	80800515 	stw	r2,20(r16)
   42264:	003fd306 	br	421b4 <__alt_data_end+0xfffd01b4>
   42268:	04810004 	movi	r18,1024
   4226c:	003fc306 	br	4217c <__alt_data_end+0xfffd017c>
   42270:	0027883a 	mov	r19,zero
   42274:	04810004 	movi	r18,1024
   42278:	003fc006 	br	4217c <__alt_data_end+0xfffd017c>

0004227c <_malloc_r>:
   4227c:	defff504 	addi	sp,sp,-44
   42280:	dc800315 	stw	r18,12(sp)
   42284:	dfc00a15 	stw	ra,40(sp)
   42288:	df000915 	stw	fp,36(sp)
   4228c:	ddc00815 	stw	r23,32(sp)
   42290:	dd800715 	stw	r22,28(sp)
   42294:	dd400615 	stw	r21,24(sp)
   42298:	dd000515 	stw	r20,20(sp)
   4229c:	dcc00415 	stw	r19,16(sp)
   422a0:	dc400215 	stw	r17,8(sp)
   422a4:	dc000115 	stw	r16,4(sp)
   422a8:	288002c4 	addi	r2,r5,11
   422ac:	00c00584 	movi	r3,22
   422b0:	2025883a 	mov	r18,r4
   422b4:	18807f2e 	bgeu	r3,r2,424b4 <_malloc_r+0x238>
   422b8:	047ffe04 	movi	r17,-8
   422bc:	1462703a 	and	r17,r2,r17
   422c0:	8800a316 	blt	r17,zero,42550 <_malloc_r+0x2d4>
   422c4:	8940a236 	bltu	r17,r5,42550 <_malloc_r+0x2d4>
   422c8:	004f7780 	call	4f778 <__malloc_lock>
   422cc:	00807dc4 	movi	r2,503
   422d0:	1441e92e 	bgeu	r2,r17,42a78 <_malloc_r+0x7fc>
   422d4:	8804d27a 	srli	r2,r17,9
   422d8:	1000a126 	beq	r2,zero,42560 <_malloc_r+0x2e4>
   422dc:	00c00104 	movi	r3,4
   422e0:	18811e36 	bltu	r3,r2,4275c <_malloc_r+0x4e0>
   422e4:	8804d1ba 	srli	r2,r17,6
   422e8:	12000e44 	addi	r8,r2,57
   422ec:	11c00e04 	addi	r7,r2,56
   422f0:	4209883a 	add	r4,r8,r8
   422f4:	04c00174 	movhi	r19,5
   422f8:	2109883a 	add	r4,r4,r4
   422fc:	9ccd2704 	addi	r19,r19,13468
   42300:	2109883a 	add	r4,r4,r4
   42304:	9909883a 	add	r4,r19,r4
   42308:	24000117 	ldw	r16,4(r4)
   4230c:	213ffe04 	addi	r4,r4,-8
   42310:	24009726 	beq	r4,r16,42570 <_malloc_r+0x2f4>
   42314:	80800117 	ldw	r2,4(r16)
   42318:	01bfff04 	movi	r6,-4
   4231c:	014003c4 	movi	r5,15
   42320:	1184703a 	and	r2,r2,r6
   42324:	1447c83a 	sub	r3,r2,r17
   42328:	28c00716 	blt	r5,r3,42348 <_malloc_r+0xcc>
   4232c:	1800920e 	bge	r3,zero,42578 <_malloc_r+0x2fc>
   42330:	84000317 	ldw	r16,12(r16)
   42334:	24008e26 	beq	r4,r16,42570 <_malloc_r+0x2f4>
   42338:	80800117 	ldw	r2,4(r16)
   4233c:	1184703a 	and	r2,r2,r6
   42340:	1447c83a 	sub	r3,r2,r17
   42344:	28fff90e 	bge	r5,r3,4232c <__alt_data_end+0xfffd032c>
   42348:	3809883a 	mov	r4,r7
   4234c:	01800174 	movhi	r6,5
   42350:	9c000417 	ldw	r16,16(r19)
   42354:	318d2704 	addi	r6,r6,13468
   42358:	32000204 	addi	r8,r6,8
   4235c:	82013426 	beq	r16,r8,42830 <_malloc_r+0x5b4>
   42360:	80c00117 	ldw	r3,4(r16)
   42364:	00bfff04 	movi	r2,-4
   42368:	188e703a 	and	r7,r3,r2
   4236c:	3c45c83a 	sub	r2,r7,r17
   42370:	00c003c4 	movi	r3,15
   42374:	18811f16 	blt	r3,r2,427f4 <_malloc_r+0x578>
   42378:	32000515 	stw	r8,20(r6)
   4237c:	32000415 	stw	r8,16(r6)
   42380:	10007f0e 	bge	r2,zero,42580 <_malloc_r+0x304>
   42384:	00807fc4 	movi	r2,511
   42388:	11c0fd36 	bltu	r2,r7,42780 <_malloc_r+0x504>
   4238c:	3806d0fa 	srli	r3,r7,3
   42390:	01c00044 	movi	r7,1
   42394:	30800117 	ldw	r2,4(r6)
   42398:	19400044 	addi	r5,r3,1
   4239c:	294b883a 	add	r5,r5,r5
   423a0:	1807d0ba 	srai	r3,r3,2
   423a4:	294b883a 	add	r5,r5,r5
   423a8:	294b883a 	add	r5,r5,r5
   423ac:	298b883a 	add	r5,r5,r6
   423b0:	38c6983a 	sll	r3,r7,r3
   423b4:	29c00017 	ldw	r7,0(r5)
   423b8:	2a7ffe04 	addi	r9,r5,-8
   423bc:	1886b03a 	or	r3,r3,r2
   423c0:	82400315 	stw	r9,12(r16)
   423c4:	81c00215 	stw	r7,8(r16)
   423c8:	30c00115 	stw	r3,4(r6)
   423cc:	2c000015 	stw	r16,0(r5)
   423d0:	3c000315 	stw	r16,12(r7)
   423d4:	2005d0ba 	srai	r2,r4,2
   423d8:	01400044 	movi	r5,1
   423dc:	288a983a 	sll	r5,r5,r2
   423e0:	19406f36 	bltu	r3,r5,425a0 <_malloc_r+0x324>
   423e4:	28c4703a 	and	r2,r5,r3
   423e8:	10000a1e 	bne	r2,zero,42414 <_malloc_r+0x198>
   423ec:	00bfff04 	movi	r2,-4
   423f0:	294b883a 	add	r5,r5,r5
   423f4:	2088703a 	and	r4,r4,r2
   423f8:	28c4703a 	and	r2,r5,r3
   423fc:	21000104 	addi	r4,r4,4
   42400:	1000041e 	bne	r2,zero,42414 <_malloc_r+0x198>
   42404:	294b883a 	add	r5,r5,r5
   42408:	28c4703a 	and	r2,r5,r3
   4240c:	21000104 	addi	r4,r4,4
   42410:	103ffc26 	beq	r2,zero,42404 <__alt_data_end+0xfffd0404>
   42414:	02bfff04 	movi	r10,-4
   42418:	024003c4 	movi	r9,15
   4241c:	21800044 	addi	r6,r4,1
   42420:	318d883a 	add	r6,r6,r6
   42424:	318d883a 	add	r6,r6,r6
   42428:	318d883a 	add	r6,r6,r6
   4242c:	998d883a 	add	r6,r19,r6
   42430:	333ffe04 	addi	r12,r6,-8
   42434:	2017883a 	mov	r11,r4
   42438:	31800104 	addi	r6,r6,4
   4243c:	34000017 	ldw	r16,0(r6)
   42440:	31fffd04 	addi	r7,r6,-12
   42444:	81c0041e 	bne	r16,r7,42458 <_malloc_r+0x1dc>
   42448:	0000fb06 	br	42838 <_malloc_r+0x5bc>
   4244c:	1801030e 	bge	r3,zero,4285c <_malloc_r+0x5e0>
   42450:	84000317 	ldw	r16,12(r16)
   42454:	81c0f826 	beq	r16,r7,42838 <_malloc_r+0x5bc>
   42458:	80800117 	ldw	r2,4(r16)
   4245c:	1284703a 	and	r2,r2,r10
   42460:	1447c83a 	sub	r3,r2,r17
   42464:	48fff90e 	bge	r9,r3,4244c <__alt_data_end+0xfffd044c>
   42468:	80800317 	ldw	r2,12(r16)
   4246c:	81000217 	ldw	r4,8(r16)
   42470:	89400054 	ori	r5,r17,1
   42474:	81400115 	stw	r5,4(r16)
   42478:	20800315 	stw	r2,12(r4)
   4247c:	11000215 	stw	r4,8(r2)
   42480:	8463883a 	add	r17,r16,r17
   42484:	9c400515 	stw	r17,20(r19)
   42488:	9c400415 	stw	r17,16(r19)
   4248c:	18800054 	ori	r2,r3,1
   42490:	88800115 	stw	r2,4(r17)
   42494:	8a000315 	stw	r8,12(r17)
   42498:	8a000215 	stw	r8,8(r17)
   4249c:	88e3883a 	add	r17,r17,r3
   424a0:	88c00015 	stw	r3,0(r17)
   424a4:	9009883a 	mov	r4,r18
   424a8:	004f79c0 	call	4f79c <__malloc_unlock>
   424ac:	80800204 	addi	r2,r16,8
   424b0:	00001b06 	br	42520 <_malloc_r+0x2a4>
   424b4:	04400404 	movi	r17,16
   424b8:	89402536 	bltu	r17,r5,42550 <_malloc_r+0x2d4>
   424bc:	004f7780 	call	4f778 <__malloc_lock>
   424c0:	00800184 	movi	r2,6
   424c4:	01000084 	movi	r4,2
   424c8:	04c00174 	movhi	r19,5
   424cc:	1085883a 	add	r2,r2,r2
   424d0:	9ccd2704 	addi	r19,r19,13468
   424d4:	1085883a 	add	r2,r2,r2
   424d8:	9885883a 	add	r2,r19,r2
   424dc:	14000117 	ldw	r16,4(r2)
   424e0:	10fffe04 	addi	r3,r2,-8
   424e4:	80c0d926 	beq	r16,r3,4284c <_malloc_r+0x5d0>
   424e8:	80c00117 	ldw	r3,4(r16)
   424ec:	81000317 	ldw	r4,12(r16)
   424f0:	00bfff04 	movi	r2,-4
   424f4:	1884703a 	and	r2,r3,r2
   424f8:	81400217 	ldw	r5,8(r16)
   424fc:	8085883a 	add	r2,r16,r2
   42500:	10c00117 	ldw	r3,4(r2)
   42504:	29000315 	stw	r4,12(r5)
   42508:	21400215 	stw	r5,8(r4)
   4250c:	18c00054 	ori	r3,r3,1
   42510:	10c00115 	stw	r3,4(r2)
   42514:	9009883a 	mov	r4,r18
   42518:	004f79c0 	call	4f79c <__malloc_unlock>
   4251c:	80800204 	addi	r2,r16,8
   42520:	dfc00a17 	ldw	ra,40(sp)
   42524:	df000917 	ldw	fp,36(sp)
   42528:	ddc00817 	ldw	r23,32(sp)
   4252c:	dd800717 	ldw	r22,28(sp)
   42530:	dd400617 	ldw	r21,24(sp)
   42534:	dd000517 	ldw	r20,20(sp)
   42538:	dcc00417 	ldw	r19,16(sp)
   4253c:	dc800317 	ldw	r18,12(sp)
   42540:	dc400217 	ldw	r17,8(sp)
   42544:	dc000117 	ldw	r16,4(sp)
   42548:	dec00b04 	addi	sp,sp,44
   4254c:	f800283a 	ret
   42550:	00800304 	movi	r2,12
   42554:	90800015 	stw	r2,0(r18)
   42558:	0005883a 	mov	r2,zero
   4255c:	003ff006 	br	42520 <__alt_data_end+0xfffd0520>
   42560:	01002004 	movi	r4,128
   42564:	02001004 	movi	r8,64
   42568:	01c00fc4 	movi	r7,63
   4256c:	003f6106 	br	422f4 <__alt_data_end+0xfffd02f4>
   42570:	4009883a 	mov	r4,r8
   42574:	003f7506 	br	4234c <__alt_data_end+0xfffd034c>
   42578:	81000317 	ldw	r4,12(r16)
   4257c:	003fde06 	br	424f8 <__alt_data_end+0xfffd04f8>
   42580:	81c5883a 	add	r2,r16,r7
   42584:	11400117 	ldw	r5,4(r2)
   42588:	9009883a 	mov	r4,r18
   4258c:	29400054 	ori	r5,r5,1
   42590:	11400115 	stw	r5,4(r2)
   42594:	004f79c0 	call	4f79c <__malloc_unlock>
   42598:	80800204 	addi	r2,r16,8
   4259c:	003fe006 	br	42520 <__alt_data_end+0xfffd0520>
   425a0:	9c000217 	ldw	r16,8(r19)
   425a4:	00bfff04 	movi	r2,-4
   425a8:	85800117 	ldw	r22,4(r16)
   425ac:	b0ac703a 	and	r22,r22,r2
   425b0:	b4400336 	bltu	r22,r17,425c0 <_malloc_r+0x344>
   425b4:	b445c83a 	sub	r2,r22,r17
   425b8:	00c003c4 	movi	r3,15
   425bc:	18805d16 	blt	r3,r2,42734 <_malloc_r+0x4b8>
   425c0:	05c00174 	movhi	r23,5
   425c4:	00800174 	movhi	r2,5
   425c8:	109adb04 	addi	r2,r2,27500
   425cc:	bdd31704 	addi	r23,r23,19548
   425d0:	15400017 	ldw	r21,0(r2)
   425d4:	b8c00017 	ldw	r3,0(r23)
   425d8:	00bfffc4 	movi	r2,-1
   425dc:	858d883a 	add	r6,r16,r22
   425e0:	8d6b883a 	add	r21,r17,r21
   425e4:	1880ea26 	beq	r3,r2,42990 <_malloc_r+0x714>
   425e8:	ad4403c4 	addi	r21,r21,4111
   425ec:	00bc0004 	movi	r2,-4096
   425f0:	a8aa703a 	and	r21,r21,r2
   425f4:	a80b883a 	mov	r5,r21
   425f8:	9009883a 	mov	r4,r18
   425fc:	d9800015 	stw	r6,0(sp)
   42600:	0042fbc0 	call	42fbc <_sbrk_r>
   42604:	1029883a 	mov	r20,r2
   42608:	00bfffc4 	movi	r2,-1
   4260c:	d9800017 	ldw	r6,0(sp)
   42610:	a080e826 	beq	r20,r2,429b4 <_malloc_r+0x738>
   42614:	a180a636 	bltu	r20,r6,428b0 <_malloc_r+0x634>
   42618:	07000174 	movhi	fp,5
   4261c:	e71b5304 	addi	fp,fp,27980
   42620:	e0800017 	ldw	r2,0(fp)
   42624:	a887883a 	add	r3,r21,r2
   42628:	e0c00015 	stw	r3,0(fp)
   4262c:	3500e626 	beq	r6,r20,429c8 <_malloc_r+0x74c>
   42630:	b9000017 	ldw	r4,0(r23)
   42634:	00bfffc4 	movi	r2,-1
   42638:	2080ee26 	beq	r4,r2,429f4 <_malloc_r+0x778>
   4263c:	a185c83a 	sub	r2,r20,r6
   42640:	10c5883a 	add	r2,r2,r3
   42644:	e0800015 	stw	r2,0(fp)
   42648:	a0c001cc 	andi	r3,r20,7
   4264c:	1800bc26 	beq	r3,zero,42940 <_malloc_r+0x6c4>
   42650:	a0e9c83a 	sub	r20,r20,r3
   42654:	00840204 	movi	r2,4104
   42658:	a5000204 	addi	r20,r20,8
   4265c:	10c7c83a 	sub	r3,r2,r3
   42660:	a545883a 	add	r2,r20,r21
   42664:	1083ffcc 	andi	r2,r2,4095
   42668:	18abc83a 	sub	r21,r3,r2
   4266c:	a80b883a 	mov	r5,r21
   42670:	9009883a 	mov	r4,r18
   42674:	0042fbc0 	call	42fbc <_sbrk_r>
   42678:	00ffffc4 	movi	r3,-1
   4267c:	10c0e126 	beq	r2,r3,42a04 <_malloc_r+0x788>
   42680:	1505c83a 	sub	r2,r2,r20
   42684:	1545883a 	add	r2,r2,r21
   42688:	10800054 	ori	r2,r2,1
   4268c:	e0c00017 	ldw	r3,0(fp)
   42690:	9d000215 	stw	r20,8(r19)
   42694:	a0800115 	stw	r2,4(r20)
   42698:	a8c7883a 	add	r3,r21,r3
   4269c:	e0c00015 	stw	r3,0(fp)
   426a0:	84c00e26 	beq	r16,r19,426dc <_malloc_r+0x460>
   426a4:	018003c4 	movi	r6,15
   426a8:	3580a72e 	bgeu	r6,r22,42948 <_malloc_r+0x6cc>
   426ac:	81400117 	ldw	r5,4(r16)
   426b0:	013ffe04 	movi	r4,-8
   426b4:	b0bffd04 	addi	r2,r22,-12
   426b8:	1104703a 	and	r2,r2,r4
   426bc:	2900004c 	andi	r4,r5,1
   426c0:	2088b03a 	or	r4,r4,r2
   426c4:	81000115 	stw	r4,4(r16)
   426c8:	01400144 	movi	r5,5
   426cc:	8089883a 	add	r4,r16,r2
   426d0:	21400115 	stw	r5,4(r4)
   426d4:	21400215 	stw	r5,8(r4)
   426d8:	3080cd36 	bltu	r6,r2,42a10 <_malloc_r+0x794>
   426dc:	00800174 	movhi	r2,5
   426e0:	109ada04 	addi	r2,r2,27496
   426e4:	11000017 	ldw	r4,0(r2)
   426e8:	20c0012e 	bgeu	r4,r3,426f0 <_malloc_r+0x474>
   426ec:	10c00015 	stw	r3,0(r2)
   426f0:	00800174 	movhi	r2,5
   426f4:	109ad904 	addi	r2,r2,27492
   426f8:	11000017 	ldw	r4,0(r2)
   426fc:	9c000217 	ldw	r16,8(r19)
   42700:	20c0012e 	bgeu	r4,r3,42708 <_malloc_r+0x48c>
   42704:	10c00015 	stw	r3,0(r2)
   42708:	80c00117 	ldw	r3,4(r16)
   4270c:	00bfff04 	movi	r2,-4
   42710:	1886703a 	and	r3,r3,r2
   42714:	1c45c83a 	sub	r2,r3,r17
   42718:	1c400236 	bltu	r3,r17,42724 <_malloc_r+0x4a8>
   4271c:	00c003c4 	movi	r3,15
   42720:	18800416 	blt	r3,r2,42734 <_malloc_r+0x4b8>
   42724:	9009883a 	mov	r4,r18
   42728:	004f79c0 	call	4f79c <__malloc_unlock>
   4272c:	0005883a 	mov	r2,zero
   42730:	003f7b06 	br	42520 <__alt_data_end+0xfffd0520>
   42734:	88c00054 	ori	r3,r17,1
   42738:	80c00115 	stw	r3,4(r16)
   4273c:	8463883a 	add	r17,r16,r17
   42740:	10800054 	ori	r2,r2,1
   42744:	9c400215 	stw	r17,8(r19)
   42748:	88800115 	stw	r2,4(r17)
   4274c:	9009883a 	mov	r4,r18
   42750:	004f79c0 	call	4f79c <__malloc_unlock>
   42754:	80800204 	addi	r2,r16,8
   42758:	003f7106 	br	42520 <__alt_data_end+0xfffd0520>
   4275c:	00c00504 	movi	r3,20
   42760:	18804a2e 	bgeu	r3,r2,4288c <_malloc_r+0x610>
   42764:	00c01504 	movi	r3,84
   42768:	18806e36 	bltu	r3,r2,42924 <_malloc_r+0x6a8>
   4276c:	8804d33a 	srli	r2,r17,12
   42770:	12001bc4 	addi	r8,r2,111
   42774:	11c01b84 	addi	r7,r2,110
   42778:	4209883a 	add	r4,r8,r8
   4277c:	003edd06 	br	422f4 <__alt_data_end+0xfffd02f4>
   42780:	3804d27a 	srli	r2,r7,9
   42784:	00c00104 	movi	r3,4
   42788:	1880442e 	bgeu	r3,r2,4289c <_malloc_r+0x620>
   4278c:	00c00504 	movi	r3,20
   42790:	18808136 	bltu	r3,r2,42998 <_malloc_r+0x71c>
   42794:	11401704 	addi	r5,r2,92
   42798:	10c016c4 	addi	r3,r2,91
   4279c:	294b883a 	add	r5,r5,r5
   427a0:	294b883a 	add	r5,r5,r5
   427a4:	294b883a 	add	r5,r5,r5
   427a8:	994b883a 	add	r5,r19,r5
   427ac:	28800017 	ldw	r2,0(r5)
   427b0:	01800174 	movhi	r6,5
   427b4:	297ffe04 	addi	r5,r5,-8
   427b8:	318d2704 	addi	r6,r6,13468
   427bc:	28806526 	beq	r5,r2,42954 <_malloc_r+0x6d8>
   427c0:	01bfff04 	movi	r6,-4
   427c4:	10c00117 	ldw	r3,4(r2)
   427c8:	1986703a 	and	r3,r3,r6
   427cc:	38c0022e 	bgeu	r7,r3,427d8 <_malloc_r+0x55c>
   427d0:	10800217 	ldw	r2,8(r2)
   427d4:	28bffb1e 	bne	r5,r2,427c4 <__alt_data_end+0xfffd07c4>
   427d8:	11400317 	ldw	r5,12(r2)
   427dc:	98c00117 	ldw	r3,4(r19)
   427e0:	81400315 	stw	r5,12(r16)
   427e4:	80800215 	stw	r2,8(r16)
   427e8:	2c000215 	stw	r16,8(r5)
   427ec:	14000315 	stw	r16,12(r2)
   427f0:	003ef806 	br	423d4 <__alt_data_end+0xfffd03d4>
   427f4:	88c00054 	ori	r3,r17,1
   427f8:	80c00115 	stw	r3,4(r16)
   427fc:	8463883a 	add	r17,r16,r17
   42800:	34400515 	stw	r17,20(r6)
   42804:	34400415 	stw	r17,16(r6)
   42808:	10c00054 	ori	r3,r2,1
   4280c:	8a000315 	stw	r8,12(r17)
   42810:	8a000215 	stw	r8,8(r17)
   42814:	88c00115 	stw	r3,4(r17)
   42818:	88a3883a 	add	r17,r17,r2
   4281c:	88800015 	stw	r2,0(r17)
   42820:	9009883a 	mov	r4,r18
   42824:	004f79c0 	call	4f79c <__malloc_unlock>
   42828:	80800204 	addi	r2,r16,8
   4282c:	003f3c06 	br	42520 <__alt_data_end+0xfffd0520>
   42830:	30c00117 	ldw	r3,4(r6)
   42834:	003ee706 	br	423d4 <__alt_data_end+0xfffd03d4>
   42838:	5ac00044 	addi	r11,r11,1
   4283c:	588000cc 	andi	r2,r11,3
   42840:	31800204 	addi	r6,r6,8
   42844:	103efd1e 	bne	r2,zero,4243c <__alt_data_end+0xfffd043c>
   42848:	00002406 	br	428dc <_malloc_r+0x660>
   4284c:	14000317 	ldw	r16,12(r2)
   42850:	143f251e 	bne	r2,r16,424e8 <__alt_data_end+0xfffd04e8>
   42854:	21000084 	addi	r4,r4,2
   42858:	003ebc06 	br	4234c <__alt_data_end+0xfffd034c>
   4285c:	8085883a 	add	r2,r16,r2
   42860:	10c00117 	ldw	r3,4(r2)
   42864:	81000317 	ldw	r4,12(r16)
   42868:	81400217 	ldw	r5,8(r16)
   4286c:	18c00054 	ori	r3,r3,1
   42870:	10c00115 	stw	r3,4(r2)
   42874:	29000315 	stw	r4,12(r5)
   42878:	21400215 	stw	r5,8(r4)
   4287c:	9009883a 	mov	r4,r18
   42880:	004f79c0 	call	4f79c <__malloc_unlock>
   42884:	80800204 	addi	r2,r16,8
   42888:	003f2506 	br	42520 <__alt_data_end+0xfffd0520>
   4288c:	12001704 	addi	r8,r2,92
   42890:	11c016c4 	addi	r7,r2,91
   42894:	4209883a 	add	r4,r8,r8
   42898:	003e9606 	br	422f4 <__alt_data_end+0xfffd02f4>
   4289c:	3804d1ba 	srli	r2,r7,6
   428a0:	11400e44 	addi	r5,r2,57
   428a4:	10c00e04 	addi	r3,r2,56
   428a8:	294b883a 	add	r5,r5,r5
   428ac:	003fbc06 	br	427a0 <__alt_data_end+0xfffd07a0>
   428b0:	84ff5926 	beq	r16,r19,42618 <__alt_data_end+0xfffd0618>
   428b4:	00800174 	movhi	r2,5
   428b8:	108d2704 	addi	r2,r2,13468
   428bc:	14000217 	ldw	r16,8(r2)
   428c0:	00bfff04 	movi	r2,-4
   428c4:	80c00117 	ldw	r3,4(r16)
   428c8:	1886703a 	and	r3,r3,r2
   428cc:	003f9106 	br	42714 <__alt_data_end+0xfffd0714>
   428d0:	60800217 	ldw	r2,8(r12)
   428d4:	213fffc4 	addi	r4,r4,-1
   428d8:	1300651e 	bne	r2,r12,42a70 <_malloc_r+0x7f4>
   428dc:	208000cc 	andi	r2,r4,3
   428e0:	633ffe04 	addi	r12,r12,-8
   428e4:	103ffa1e 	bne	r2,zero,428d0 <__alt_data_end+0xfffd08d0>
   428e8:	98800117 	ldw	r2,4(r19)
   428ec:	0146303a 	nor	r3,zero,r5
   428f0:	1884703a 	and	r2,r3,r2
   428f4:	98800115 	stw	r2,4(r19)
   428f8:	294b883a 	add	r5,r5,r5
   428fc:	117f2836 	bltu	r2,r5,425a0 <__alt_data_end+0xfffd05a0>
   42900:	283f2726 	beq	r5,zero,425a0 <__alt_data_end+0xfffd05a0>
   42904:	2886703a 	and	r3,r5,r2
   42908:	5809883a 	mov	r4,r11
   4290c:	183ec31e 	bne	r3,zero,4241c <__alt_data_end+0xfffd041c>
   42910:	294b883a 	add	r5,r5,r5
   42914:	2886703a 	and	r3,r5,r2
   42918:	21000104 	addi	r4,r4,4
   4291c:	183ffc26 	beq	r3,zero,42910 <__alt_data_end+0xfffd0910>
   42920:	003ebe06 	br	4241c <__alt_data_end+0xfffd041c>
   42924:	00c05504 	movi	r3,340
   42928:	18801236 	bltu	r3,r2,42974 <_malloc_r+0x6f8>
   4292c:	8804d3fa 	srli	r2,r17,15
   42930:	12001e04 	addi	r8,r2,120
   42934:	11c01dc4 	addi	r7,r2,119
   42938:	4209883a 	add	r4,r8,r8
   4293c:	003e6d06 	br	422f4 <__alt_data_end+0xfffd02f4>
   42940:	00c40004 	movi	r3,4096
   42944:	003f4606 	br	42660 <__alt_data_end+0xfffd0660>
   42948:	00800044 	movi	r2,1
   4294c:	a0800115 	stw	r2,4(r20)
   42950:	003f7406 	br	42724 <__alt_data_end+0xfffd0724>
   42954:	1805d0ba 	srai	r2,r3,2
   42958:	01c00044 	movi	r7,1
   4295c:	30c00117 	ldw	r3,4(r6)
   42960:	388e983a 	sll	r7,r7,r2
   42964:	2805883a 	mov	r2,r5
   42968:	38c6b03a 	or	r3,r7,r3
   4296c:	30c00115 	stw	r3,4(r6)
   42970:	003f9b06 	br	427e0 <__alt_data_end+0xfffd07e0>
   42974:	00c15504 	movi	r3,1364
   42978:	18801a36 	bltu	r3,r2,429e4 <_malloc_r+0x768>
   4297c:	8804d4ba 	srli	r2,r17,18
   42980:	12001f44 	addi	r8,r2,125
   42984:	11c01f04 	addi	r7,r2,124
   42988:	4209883a 	add	r4,r8,r8
   4298c:	003e5906 	br	422f4 <__alt_data_end+0xfffd02f4>
   42990:	ad400404 	addi	r21,r21,16
   42994:	003f1706 	br	425f4 <__alt_data_end+0xfffd05f4>
   42998:	00c01504 	movi	r3,84
   4299c:	18802336 	bltu	r3,r2,42a2c <_malloc_r+0x7b0>
   429a0:	3804d33a 	srli	r2,r7,12
   429a4:	11401bc4 	addi	r5,r2,111
   429a8:	10c01b84 	addi	r3,r2,110
   429ac:	294b883a 	add	r5,r5,r5
   429b0:	003f7b06 	br	427a0 <__alt_data_end+0xfffd07a0>
   429b4:	9c000217 	ldw	r16,8(r19)
   429b8:	00bfff04 	movi	r2,-4
   429bc:	80c00117 	ldw	r3,4(r16)
   429c0:	1886703a 	and	r3,r3,r2
   429c4:	003f5306 	br	42714 <__alt_data_end+0xfffd0714>
   429c8:	3083ffcc 	andi	r2,r6,4095
   429cc:	103f181e 	bne	r2,zero,42630 <__alt_data_end+0xfffd0630>
   429d0:	99000217 	ldw	r4,8(r19)
   429d4:	b545883a 	add	r2,r22,r21
   429d8:	10800054 	ori	r2,r2,1
   429dc:	20800115 	stw	r2,4(r4)
   429e0:	003f3e06 	br	426dc <__alt_data_end+0xfffd06dc>
   429e4:	01003f84 	movi	r4,254
   429e8:	02001fc4 	movi	r8,127
   429ec:	01c01f84 	movi	r7,126
   429f0:	003e4006 	br	422f4 <__alt_data_end+0xfffd02f4>
   429f4:	00800174 	movhi	r2,5
   429f8:	10931704 	addi	r2,r2,19548
   429fc:	15000015 	stw	r20,0(r2)
   42a00:	003f1106 	br	42648 <__alt_data_end+0xfffd0648>
   42a04:	00800044 	movi	r2,1
   42a08:	002b883a 	mov	r21,zero
   42a0c:	003f1f06 	br	4268c <__alt_data_end+0xfffd068c>
   42a10:	81400204 	addi	r5,r16,8
   42a14:	9009883a 	mov	r4,r18
   42a18:	00478c00 	call	478c0 <_free_r>
   42a1c:	00800174 	movhi	r2,5
   42a20:	109b5304 	addi	r2,r2,27980
   42a24:	10c00017 	ldw	r3,0(r2)
   42a28:	003f2c06 	br	426dc <__alt_data_end+0xfffd06dc>
   42a2c:	00c05504 	movi	r3,340
   42a30:	18800536 	bltu	r3,r2,42a48 <_malloc_r+0x7cc>
   42a34:	3804d3fa 	srli	r2,r7,15
   42a38:	11401e04 	addi	r5,r2,120
   42a3c:	10c01dc4 	addi	r3,r2,119
   42a40:	294b883a 	add	r5,r5,r5
   42a44:	003f5606 	br	427a0 <__alt_data_end+0xfffd07a0>
   42a48:	00c15504 	movi	r3,1364
   42a4c:	18800536 	bltu	r3,r2,42a64 <_malloc_r+0x7e8>
   42a50:	3804d4ba 	srli	r2,r7,18
   42a54:	11401f44 	addi	r5,r2,125
   42a58:	10c01f04 	addi	r3,r2,124
   42a5c:	294b883a 	add	r5,r5,r5
   42a60:	003f4f06 	br	427a0 <__alt_data_end+0xfffd07a0>
   42a64:	01403f84 	movi	r5,254
   42a68:	00c01f84 	movi	r3,126
   42a6c:	003f4c06 	br	427a0 <__alt_data_end+0xfffd07a0>
   42a70:	98800117 	ldw	r2,4(r19)
   42a74:	003fa006 	br	428f8 <__alt_data_end+0xfffd08f8>
   42a78:	8808d0fa 	srli	r4,r17,3
   42a7c:	20800044 	addi	r2,r4,1
   42a80:	1085883a 	add	r2,r2,r2
   42a84:	003e9006 	br	424c8 <__alt_data_end+0xfffd04c8>

00042a88 <memset>:
   42a88:	20c000cc 	andi	r3,r4,3
   42a8c:	2005883a 	mov	r2,r4
   42a90:	18004426 	beq	r3,zero,42ba4 <memset+0x11c>
   42a94:	31ffffc4 	addi	r7,r6,-1
   42a98:	30004026 	beq	r6,zero,42b9c <memset+0x114>
   42a9c:	2813883a 	mov	r9,r5
   42aa0:	200d883a 	mov	r6,r4
   42aa4:	2007883a 	mov	r3,r4
   42aa8:	00000406 	br	42abc <memset+0x34>
   42aac:	3a3fffc4 	addi	r8,r7,-1
   42ab0:	31800044 	addi	r6,r6,1
   42ab4:	38003926 	beq	r7,zero,42b9c <memset+0x114>
   42ab8:	400f883a 	mov	r7,r8
   42abc:	18c00044 	addi	r3,r3,1
   42ac0:	32400005 	stb	r9,0(r6)
   42ac4:	1a0000cc 	andi	r8,r3,3
   42ac8:	403ff81e 	bne	r8,zero,42aac <__alt_data_end+0xfffd0aac>
   42acc:	010000c4 	movi	r4,3
   42ad0:	21c02d2e 	bgeu	r4,r7,42b88 <memset+0x100>
   42ad4:	29003fcc 	andi	r4,r5,255
   42ad8:	200c923a 	slli	r6,r4,8
   42adc:	3108b03a 	or	r4,r6,r4
   42ae0:	200c943a 	slli	r6,r4,16
   42ae4:	218cb03a 	or	r6,r4,r6
   42ae8:	010003c4 	movi	r4,15
   42aec:	21c0182e 	bgeu	r4,r7,42b50 <memset+0xc8>
   42af0:	3b3ffc04 	addi	r12,r7,-16
   42af4:	6018d13a 	srli	r12,r12,4
   42af8:	1a000104 	addi	r8,r3,4
   42afc:	1ac00204 	addi	r11,r3,8
   42b00:	6008913a 	slli	r4,r12,4
   42b04:	1a800304 	addi	r10,r3,12
   42b08:	1813883a 	mov	r9,r3
   42b0c:	21000504 	addi	r4,r4,20
   42b10:	1909883a 	add	r4,r3,r4
   42b14:	49800015 	stw	r6,0(r9)
   42b18:	41800015 	stw	r6,0(r8)
   42b1c:	59800015 	stw	r6,0(r11)
   42b20:	51800015 	stw	r6,0(r10)
   42b24:	42000404 	addi	r8,r8,16
   42b28:	4a400404 	addi	r9,r9,16
   42b2c:	5ac00404 	addi	r11,r11,16
   42b30:	52800404 	addi	r10,r10,16
   42b34:	413ff71e 	bne	r8,r4,42b14 <__alt_data_end+0xfffd0b14>
   42b38:	63000044 	addi	r12,r12,1
   42b3c:	6018913a 	slli	r12,r12,4
   42b40:	39c003cc 	andi	r7,r7,15
   42b44:	010000c4 	movi	r4,3
   42b48:	1b07883a 	add	r3,r3,r12
   42b4c:	21c00e2e 	bgeu	r4,r7,42b88 <memset+0x100>
   42b50:	1813883a 	mov	r9,r3
   42b54:	3811883a 	mov	r8,r7
   42b58:	010000c4 	movi	r4,3
   42b5c:	49800015 	stw	r6,0(r9)
   42b60:	423fff04 	addi	r8,r8,-4
   42b64:	4a400104 	addi	r9,r9,4
   42b68:	223ffc36 	bltu	r4,r8,42b5c <__alt_data_end+0xfffd0b5c>
   42b6c:	393fff04 	addi	r4,r7,-4
   42b70:	2008d0ba 	srli	r4,r4,2
   42b74:	39c000cc 	andi	r7,r7,3
   42b78:	21000044 	addi	r4,r4,1
   42b7c:	2109883a 	add	r4,r4,r4
   42b80:	2109883a 	add	r4,r4,r4
   42b84:	1907883a 	add	r3,r3,r4
   42b88:	38000526 	beq	r7,zero,42ba0 <memset+0x118>
   42b8c:	19cf883a 	add	r7,r3,r7
   42b90:	19400005 	stb	r5,0(r3)
   42b94:	18c00044 	addi	r3,r3,1
   42b98:	38fffd1e 	bne	r7,r3,42b90 <__alt_data_end+0xfffd0b90>
   42b9c:	f800283a 	ret
   42ba0:	f800283a 	ret
   42ba4:	2007883a 	mov	r3,r4
   42ba8:	300f883a 	mov	r7,r6
   42bac:	003fc706 	br	42acc <__alt_data_end+0xfffd0acc>

00042bb0 <_open_r>:
   42bb0:	defffd04 	addi	sp,sp,-12
   42bb4:	2805883a 	mov	r2,r5
   42bb8:	dc000015 	stw	r16,0(sp)
   42bbc:	04000174 	movhi	r16,5
   42bc0:	dc400115 	stw	r17,4(sp)
   42bc4:	300b883a 	mov	r5,r6
   42bc8:	841ad804 	addi	r16,r16,27488
   42bcc:	2023883a 	mov	r17,r4
   42bd0:	380d883a 	mov	r6,r7
   42bd4:	1009883a 	mov	r4,r2
   42bd8:	dfc00215 	stw	ra,8(sp)
   42bdc:	80000015 	stw	zero,0(r16)
   42be0:	004f8c00 	call	4f8c0 <open>
   42be4:	00ffffc4 	movi	r3,-1
   42be8:	10c00526 	beq	r2,r3,42c00 <_open_r+0x50>
   42bec:	dfc00217 	ldw	ra,8(sp)
   42bf0:	dc400117 	ldw	r17,4(sp)
   42bf4:	dc000017 	ldw	r16,0(sp)
   42bf8:	dec00304 	addi	sp,sp,12
   42bfc:	f800283a 	ret
   42c00:	80c00017 	ldw	r3,0(r16)
   42c04:	183ff926 	beq	r3,zero,42bec <__alt_data_end+0xfffd0bec>
   42c08:	88c00015 	stw	r3,0(r17)
   42c0c:	003ff706 	br	42bec <__alt_data_end+0xfffd0bec>

00042c10 <_printf_r>:
   42c10:	defffd04 	addi	sp,sp,-12
   42c14:	2805883a 	mov	r2,r5
   42c18:	dfc00015 	stw	ra,0(sp)
   42c1c:	d9800115 	stw	r6,4(sp)
   42c20:	d9c00215 	stw	r7,8(sp)
   42c24:	21400217 	ldw	r5,8(r4)
   42c28:	d9c00104 	addi	r7,sp,4
   42c2c:	100d883a 	mov	r6,r2
   42c30:	00433480 	call	43348 <___vfprintf_internal_r>
   42c34:	dfc00017 	ldw	ra,0(sp)
   42c38:	dec00304 	addi	sp,sp,12
   42c3c:	f800283a 	ret

00042c40 <printf>:
   42c40:	defffc04 	addi	sp,sp,-16
   42c44:	dfc00015 	stw	ra,0(sp)
   42c48:	d9400115 	stw	r5,4(sp)
   42c4c:	d9800215 	stw	r6,8(sp)
   42c50:	d9c00315 	stw	r7,12(sp)
   42c54:	00800174 	movhi	r2,5
   42c58:	10931604 	addi	r2,r2,19544
   42c5c:	10800017 	ldw	r2,0(r2)
   42c60:	200b883a 	mov	r5,r4
   42c64:	d9800104 	addi	r6,sp,4
   42c68:	11000217 	ldw	r4,8(r2)
   42c6c:	00455400 	call	45540 <__vfprintf_internal>
   42c70:	dfc00017 	ldw	ra,0(sp)
   42c74:	dec00404 	addi	sp,sp,16
   42c78:	f800283a 	ret

00042c7c <_puts_r>:
   42c7c:	defff604 	addi	sp,sp,-40
   42c80:	dc000715 	stw	r16,28(sp)
   42c84:	2021883a 	mov	r16,r4
   42c88:	2809883a 	mov	r4,r5
   42c8c:	dc400815 	stw	r17,32(sp)
   42c90:	dfc00915 	stw	ra,36(sp)
   42c94:	2823883a 	mov	r17,r5
   42c98:	00432600 	call	43260 <strlen>
   42c9c:	10c00044 	addi	r3,r2,1
   42ca0:	d8800115 	stw	r2,4(sp)
   42ca4:	00800174 	movhi	r2,5
   42ca8:	108a1c04 	addi	r2,r2,10352
   42cac:	d8800215 	stw	r2,8(sp)
   42cb0:	00800044 	movi	r2,1
   42cb4:	d8800315 	stw	r2,12(sp)
   42cb8:	00800084 	movi	r2,2
   42cbc:	dc400015 	stw	r17,0(sp)
   42cc0:	d8c00615 	stw	r3,24(sp)
   42cc4:	dec00415 	stw	sp,16(sp)
   42cc8:	d8800515 	stw	r2,20(sp)
   42ccc:	80000226 	beq	r16,zero,42cd8 <_puts_r+0x5c>
   42cd0:	80800e17 	ldw	r2,56(r16)
   42cd4:	10001426 	beq	r2,zero,42d28 <_puts_r+0xac>
   42cd8:	81400217 	ldw	r5,8(r16)
   42cdc:	2880030b 	ldhu	r2,12(r5)
   42ce0:	10c8000c 	andi	r3,r2,8192
   42ce4:	1800061e 	bne	r3,zero,42d00 <_puts_r+0x84>
   42ce8:	29001917 	ldw	r4,100(r5)
   42cec:	00f7ffc4 	movi	r3,-8193
   42cf0:	10880014 	ori	r2,r2,8192
   42cf4:	20c6703a 	and	r3,r4,r3
   42cf8:	2880030d 	sth	r2,12(r5)
   42cfc:	28c01915 	stw	r3,100(r5)
   42d00:	d9800404 	addi	r6,sp,16
   42d04:	8009883a 	mov	r4,r16
   42d08:	0047bd00 	call	47bd0 <__sfvwrite_r>
   42d0c:	1000091e 	bne	r2,zero,42d34 <_puts_r+0xb8>
   42d10:	00800284 	movi	r2,10
   42d14:	dfc00917 	ldw	ra,36(sp)
   42d18:	dc400817 	ldw	r17,32(sp)
   42d1c:	dc000717 	ldw	r16,28(sp)
   42d20:	dec00a04 	addi	sp,sp,40
   42d24:	f800283a 	ret
   42d28:	8009883a 	mov	r4,r16
   42d2c:	00476a00 	call	476a0 <__sinit>
   42d30:	003fe906 	br	42cd8 <__alt_data_end+0xfffd0cd8>
   42d34:	00bfffc4 	movi	r2,-1
   42d38:	003ff606 	br	42d14 <__alt_data_end+0xfffd0d14>

00042d3c <puts>:
   42d3c:	00800174 	movhi	r2,5
   42d40:	10931604 	addi	r2,r2,19544
   42d44:	200b883a 	mov	r5,r4
   42d48:	11000017 	ldw	r4,0(r2)
   42d4c:	0042c7c1 	jmpi	42c7c <_puts_r>

00042d50 <srand>:
   42d50:	00800174 	movhi	r2,5
   42d54:	10931604 	addi	r2,r2,19544
   42d58:	10800017 	ldw	r2,0(r2)
   42d5c:	11002915 	stw	r4,164(r2)
   42d60:	10002a15 	stw	zero,168(r2)
   42d64:	f800283a 	ret

00042d68 <rand>:
   42d68:	00800174 	movhi	r2,5
   42d6c:	defffe04 	addi	sp,sp,-8
   42d70:	10931604 	addi	r2,r2,19544
   42d74:	dc000015 	stw	r16,0(sp)
   42d78:	14000017 	ldw	r16,0(r2)
   42d7c:	dfc00115 	stw	ra,4(sp)
   42d80:	01932574 	movhi	r6,19605
   42d84:	81002917 	ldw	r4,164(r16)
   42d88:	81402a17 	ldw	r5,168(r16)
   42d8c:	01d614b4 	movhi	r7,22610
   42d90:	319fcb44 	addi	r6,r6,32557
   42d94:	39fd0b44 	addi	r7,r7,-3027
   42d98:	004bbf00 	call	4bbf0 <__muldi3>
   42d9c:	11000044 	addi	r4,r2,1
   42da0:	2085803a 	cmpltu	r2,r4,r2
   42da4:	10c7883a 	add	r3,r2,r3
   42da8:	00a00034 	movhi	r2,32768
   42dac:	10bfffc4 	addi	r2,r2,-1
   42db0:	1884703a 	and	r2,r3,r2
   42db4:	81002915 	stw	r4,164(r16)
   42db8:	80c02a15 	stw	r3,168(r16)
   42dbc:	dfc00117 	ldw	ra,4(sp)
   42dc0:	dc000017 	ldw	r16,0(sp)
   42dc4:	dec00204 	addi	sp,sp,8
   42dc8:	f800283a 	ret

00042dcc <lflush>:
   42dcc:	2080030b 	ldhu	r2,12(r4)
   42dd0:	00c00244 	movi	r3,9
   42dd4:	1080024c 	andi	r2,r2,9
   42dd8:	10c00226 	beq	r2,r3,42de4 <lflush+0x18>
   42ddc:	0005883a 	mov	r2,zero
   42de0:	f800283a 	ret
   42de4:	00473201 	jmpi	47320 <fflush>

00042de8 <__srefill_r>:
   42de8:	defffc04 	addi	sp,sp,-16
   42dec:	dc400115 	stw	r17,4(sp)
   42df0:	dc000015 	stw	r16,0(sp)
   42df4:	dfc00315 	stw	ra,12(sp)
   42df8:	dc800215 	stw	r18,8(sp)
   42dfc:	2023883a 	mov	r17,r4
   42e00:	2821883a 	mov	r16,r5
   42e04:	20000226 	beq	r4,zero,42e10 <__srefill_r+0x28>
   42e08:	20800e17 	ldw	r2,56(r4)
   42e0c:	10003c26 	beq	r2,zero,42f00 <__srefill_r+0x118>
   42e10:	80c0030b 	ldhu	r3,12(r16)
   42e14:	1908000c 	andi	r4,r3,8192
   42e18:	1805883a 	mov	r2,r3
   42e1c:	2000071e 	bne	r4,zero,42e3c <__srefill_r+0x54>
   42e20:	81001917 	ldw	r4,100(r16)
   42e24:	18880014 	ori	r2,r3,8192
   42e28:	00f7ffc4 	movi	r3,-8193
   42e2c:	20c8703a 	and	r4,r4,r3
   42e30:	8080030d 	sth	r2,12(r16)
   42e34:	1007883a 	mov	r3,r2
   42e38:	81001915 	stw	r4,100(r16)
   42e3c:	80000115 	stw	zero,4(r16)
   42e40:	1100080c 	andi	r4,r2,32
   42e44:	2000571e 	bne	r4,zero,42fa4 <__srefill_r+0x1bc>
   42e48:	1100010c 	andi	r4,r2,4
   42e4c:	20001f26 	beq	r4,zero,42ecc <__srefill_r+0xe4>
   42e50:	81400c17 	ldw	r5,48(r16)
   42e54:	28000826 	beq	r5,zero,42e78 <__srefill_r+0x90>
   42e58:	80801004 	addi	r2,r16,64
   42e5c:	28800226 	beq	r5,r2,42e68 <__srefill_r+0x80>
   42e60:	8809883a 	mov	r4,r17
   42e64:	00478c00 	call	478c0 <_free_r>
   42e68:	80800f17 	ldw	r2,60(r16)
   42e6c:	80000c15 	stw	zero,48(r16)
   42e70:	80800115 	stw	r2,4(r16)
   42e74:	1000391e 	bne	r2,zero,42f5c <__srefill_r+0x174>
   42e78:	80800417 	ldw	r2,16(r16)
   42e7c:	10004b26 	beq	r2,zero,42fac <__srefill_r+0x1c4>
   42e80:	8480030b 	ldhu	r18,12(r16)
   42e84:	908000cc 	andi	r2,r18,3
   42e88:	10001f1e 	bne	r2,zero,42f08 <__srefill_r+0x120>
   42e8c:	81800417 	ldw	r6,16(r16)
   42e90:	80800817 	ldw	r2,32(r16)
   42e94:	81c00517 	ldw	r7,20(r16)
   42e98:	81400717 	ldw	r5,28(r16)
   42e9c:	81800015 	stw	r6,0(r16)
   42ea0:	8809883a 	mov	r4,r17
   42ea4:	103ee83a 	callr	r2
   42ea8:	80800115 	stw	r2,4(r16)
   42eac:	00800e0e 	bge	zero,r2,42ee8 <__srefill_r+0x100>
   42eb0:	0005883a 	mov	r2,zero
   42eb4:	dfc00317 	ldw	ra,12(sp)
   42eb8:	dc800217 	ldw	r18,8(sp)
   42ebc:	dc400117 	ldw	r17,4(sp)
   42ec0:	dc000017 	ldw	r16,0(sp)
   42ec4:	dec00404 	addi	sp,sp,16
   42ec8:	f800283a 	ret
   42ecc:	1100040c 	andi	r4,r2,16
   42ed0:	20003026 	beq	r4,zero,42f94 <__srefill_r+0x1ac>
   42ed4:	1080020c 	andi	r2,r2,8
   42ed8:	1000241e 	bne	r2,zero,42f6c <__srefill_r+0x184>
   42edc:	18c00114 	ori	r3,r3,4
   42ee0:	80c0030d 	sth	r3,12(r16)
   42ee4:	003fe406 	br	42e78 <__alt_data_end+0xfffd0e78>
   42ee8:	80c0030b 	ldhu	r3,12(r16)
   42eec:	1000161e 	bne	r2,zero,42f48 <__srefill_r+0x160>
   42ef0:	18c00814 	ori	r3,r3,32
   42ef4:	00bfffc4 	movi	r2,-1
   42ef8:	80c0030d 	sth	r3,12(r16)
   42efc:	003fed06 	br	42eb4 <__alt_data_end+0xfffd0eb4>
   42f00:	00476a00 	call	476a0 <__sinit>
   42f04:	003fc206 	br	42e10 <__alt_data_end+0xfffd0e10>
   42f08:	00800174 	movhi	r2,5
   42f0c:	10931504 	addi	r2,r2,19540
   42f10:	11000017 	ldw	r4,0(r2)
   42f14:	01400134 	movhi	r5,4
   42f18:	00800044 	movi	r2,1
   42f1c:	294b7304 	addi	r5,r5,11724
   42f20:	8080030d 	sth	r2,12(r16)
   42f24:	004808c0 	call	4808c <_fwalk>
   42f28:	00800244 	movi	r2,9
   42f2c:	8480030d 	sth	r18,12(r16)
   42f30:	9480024c 	andi	r18,r18,9
   42f34:	90bfd51e 	bne	r18,r2,42e8c <__alt_data_end+0xfffd0e8c>
   42f38:	800b883a 	mov	r5,r16
   42f3c:	8809883a 	mov	r4,r17
   42f40:	00470a80 	call	470a8 <__sflush_r>
   42f44:	003fd106 	br	42e8c <__alt_data_end+0xfffd0e8c>
   42f48:	18c01014 	ori	r3,r3,64
   42f4c:	80000115 	stw	zero,4(r16)
   42f50:	00bfffc4 	movi	r2,-1
   42f54:	80c0030d 	sth	r3,12(r16)
   42f58:	003fd606 	br	42eb4 <__alt_data_end+0xfffd0eb4>
   42f5c:	80c00e17 	ldw	r3,56(r16)
   42f60:	0005883a 	mov	r2,zero
   42f64:	80c00015 	stw	r3,0(r16)
   42f68:	003fd206 	br	42eb4 <__alt_data_end+0xfffd0eb4>
   42f6c:	800b883a 	mov	r5,r16
   42f70:	8809883a 	mov	r4,r17
   42f74:	00472c40 	call	472c4 <_fflush_r>
   42f78:	10000a1e 	bne	r2,zero,42fa4 <__srefill_r+0x1bc>
   42f7c:	8080030b 	ldhu	r2,12(r16)
   42f80:	00fffdc4 	movi	r3,-9
   42f84:	80000215 	stw	zero,8(r16)
   42f88:	1886703a 	and	r3,r3,r2
   42f8c:	80000615 	stw	zero,24(r16)
   42f90:	003fd206 	br	42edc <__alt_data_end+0xfffd0edc>
   42f94:	00800244 	movi	r2,9
   42f98:	88800015 	stw	r2,0(r17)
   42f9c:	18c01014 	ori	r3,r3,64
   42fa0:	80c0030d 	sth	r3,12(r16)
   42fa4:	00bfffc4 	movi	r2,-1
   42fa8:	003fc206 	br	42eb4 <__alt_data_end+0xfffd0eb4>
   42fac:	800b883a 	mov	r5,r16
   42fb0:	8809883a 	mov	r4,r17
   42fb4:	00420c00 	call	420c0 <__smakebuf_r>
   42fb8:	003fb106 	br	42e80 <__alt_data_end+0xfffd0e80>

00042fbc <_sbrk_r>:
   42fbc:	defffd04 	addi	sp,sp,-12
   42fc0:	dc000015 	stw	r16,0(sp)
   42fc4:	04000174 	movhi	r16,5
   42fc8:	dc400115 	stw	r17,4(sp)
   42fcc:	841ad804 	addi	r16,r16,27488
   42fd0:	2023883a 	mov	r17,r4
   42fd4:	2809883a 	mov	r4,r5
   42fd8:	dfc00215 	stw	ra,8(sp)
   42fdc:	80000015 	stw	zero,0(r16)
   42fe0:	004fbb00 	call	4fbb0 <sbrk>
   42fe4:	00ffffc4 	movi	r3,-1
   42fe8:	10c00526 	beq	r2,r3,43000 <_sbrk_r+0x44>
   42fec:	dfc00217 	ldw	ra,8(sp)
   42ff0:	dc400117 	ldw	r17,4(sp)
   42ff4:	dc000017 	ldw	r16,0(sp)
   42ff8:	dec00304 	addi	sp,sp,12
   42ffc:	f800283a 	ret
   43000:	80c00017 	ldw	r3,0(r16)
   43004:	183ff926 	beq	r3,zero,42fec <__alt_data_end+0xfffd0fec>
   43008:	88c00015 	stw	r3,0(r17)
   4300c:	003ff706 	br	42fec <__alt_data_end+0xfffd0fec>

00043010 <__sread>:
   43010:	defffe04 	addi	sp,sp,-8
   43014:	dc000015 	stw	r16,0(sp)
   43018:	2821883a 	mov	r16,r5
   4301c:	2940038f 	ldh	r5,14(r5)
   43020:	dfc00115 	stw	ra,4(sp)
   43024:	00497840 	call	49784 <_read_r>
   43028:	10000716 	blt	r2,zero,43048 <__sread+0x38>
   4302c:	80c01417 	ldw	r3,80(r16)
   43030:	1887883a 	add	r3,r3,r2
   43034:	80c01415 	stw	r3,80(r16)
   43038:	dfc00117 	ldw	ra,4(sp)
   4303c:	dc000017 	ldw	r16,0(sp)
   43040:	dec00204 	addi	sp,sp,8
   43044:	f800283a 	ret
   43048:	80c0030b 	ldhu	r3,12(r16)
   4304c:	18fbffcc 	andi	r3,r3,61439
   43050:	80c0030d 	sth	r3,12(r16)
   43054:	dfc00117 	ldw	ra,4(sp)
   43058:	dc000017 	ldw	r16,0(sp)
   4305c:	dec00204 	addi	sp,sp,8
   43060:	f800283a 	ret

00043064 <__seofread>:
   43064:	0005883a 	mov	r2,zero
   43068:	f800283a 	ret

0004306c <__swrite>:
   4306c:	2880030b 	ldhu	r2,12(r5)
   43070:	defffb04 	addi	sp,sp,-20
   43074:	dcc00315 	stw	r19,12(sp)
   43078:	dc800215 	stw	r18,8(sp)
   4307c:	dc400115 	stw	r17,4(sp)
   43080:	dc000015 	stw	r16,0(sp)
   43084:	dfc00415 	stw	ra,16(sp)
   43088:	10c0400c 	andi	r3,r2,256
   4308c:	2821883a 	mov	r16,r5
   43090:	2023883a 	mov	r17,r4
   43094:	3025883a 	mov	r18,r6
   43098:	3827883a 	mov	r19,r7
   4309c:	18000526 	beq	r3,zero,430b4 <__swrite+0x48>
   430a0:	2940038f 	ldh	r5,14(r5)
   430a4:	01c00084 	movi	r7,2
   430a8:	000d883a 	mov	r6,zero
   430ac:	00483a00 	call	483a0 <_lseek_r>
   430b0:	8080030b 	ldhu	r2,12(r16)
   430b4:	8140038f 	ldh	r5,14(r16)
   430b8:	10bbffcc 	andi	r2,r2,61439
   430bc:	980f883a 	mov	r7,r19
   430c0:	900d883a 	mov	r6,r18
   430c4:	8809883a 	mov	r4,r17
   430c8:	8080030d 	sth	r2,12(r16)
   430cc:	dfc00417 	ldw	ra,16(sp)
   430d0:	dcc00317 	ldw	r19,12(sp)
   430d4:	dc800217 	ldw	r18,8(sp)
   430d8:	dc400117 	ldw	r17,4(sp)
   430dc:	dc000017 	ldw	r16,0(sp)
   430e0:	dec00504 	addi	sp,sp,20
   430e4:	00456181 	jmpi	45618 <_write_r>

000430e8 <__sseek>:
   430e8:	defffe04 	addi	sp,sp,-8
   430ec:	dc000015 	stw	r16,0(sp)
   430f0:	2821883a 	mov	r16,r5
   430f4:	2940038f 	ldh	r5,14(r5)
   430f8:	dfc00115 	stw	ra,4(sp)
   430fc:	00483a00 	call	483a0 <_lseek_r>
   43100:	00ffffc4 	movi	r3,-1
   43104:	10c00826 	beq	r2,r3,43128 <__sseek+0x40>
   43108:	80c0030b 	ldhu	r3,12(r16)
   4310c:	80801415 	stw	r2,80(r16)
   43110:	18c40014 	ori	r3,r3,4096
   43114:	80c0030d 	sth	r3,12(r16)
   43118:	dfc00117 	ldw	ra,4(sp)
   4311c:	dc000017 	ldw	r16,0(sp)
   43120:	dec00204 	addi	sp,sp,8
   43124:	f800283a 	ret
   43128:	80c0030b 	ldhu	r3,12(r16)
   4312c:	18fbffcc 	andi	r3,r3,61439
   43130:	80c0030d 	sth	r3,12(r16)
   43134:	dfc00117 	ldw	ra,4(sp)
   43138:	dc000017 	ldw	r16,0(sp)
   4313c:	dec00204 	addi	sp,sp,8
   43140:	f800283a 	ret

00043144 <__sclose>:
   43144:	2940038f 	ldh	r5,14(r5)
   43148:	00457cc1 	jmpi	457cc <_close_r>

0004314c <strcat>:
   4314c:	defffe04 	addi	sp,sp,-8
   43150:	dc000015 	stw	r16,0(sp)
   43154:	dfc00115 	stw	ra,4(sp)
   43158:	208000cc 	andi	r2,r4,3
   4315c:	2021883a 	mov	r16,r4
   43160:	1000131e 	bne	r2,zero,431b0 <strcat+0x64>
   43164:	20800017 	ldw	r2,0(r4)
   43168:	01ffbff4 	movhi	r7,65279
   4316c:	39ffbfc4 	addi	r7,r7,-257
   43170:	0086303a 	nor	r3,zero,r2
   43174:	01a02074 	movhi	r6,32897
   43178:	11c5883a 	add	r2,r2,r7
   4317c:	31a02004 	addi	r6,r6,-32640
   43180:	10c4703a 	and	r2,r2,r3
   43184:	1184703a 	and	r2,r2,r6
   43188:	1000091e 	bne	r2,zero,431b0 <strcat+0x64>
   4318c:	21000104 	addi	r4,r4,4
   43190:	20800017 	ldw	r2,0(r4)
   43194:	11c7883a 	add	r3,r2,r7
   43198:	0084303a 	nor	r2,zero,r2
   4319c:	1884703a 	and	r2,r3,r2
   431a0:	1184703a 	and	r2,r2,r6
   431a4:	103ff926 	beq	r2,zero,4318c <__alt_data_end+0xfffd118c>
   431a8:	00000106 	br	431b0 <strcat+0x64>
   431ac:	21000044 	addi	r4,r4,1
   431b0:	20800007 	ldb	r2,0(r4)
   431b4:	103ffd1e 	bne	r2,zero,431ac <__alt_data_end+0xfffd11ac>
   431b8:	00431d00 	call	431d0 <strcpy>
   431bc:	8005883a 	mov	r2,r16
   431c0:	dfc00117 	ldw	ra,4(sp)
   431c4:	dc000017 	ldw	r16,0(sp)
   431c8:	dec00204 	addi	sp,sp,8
   431cc:	f800283a 	ret

000431d0 <strcpy>:
   431d0:	2906b03a 	or	r3,r5,r4
   431d4:	18c000cc 	andi	r3,r3,3
   431d8:	2005883a 	mov	r2,r4
   431dc:	1800161e 	bne	r3,zero,43238 <strcpy+0x68>
   431e0:	29c00017 	ldw	r7,0(r5)
   431e4:	02ffbff4 	movhi	r11,65279
   431e8:	5affbfc4 	addi	r11,r11,-257
   431ec:	02a02074 	movhi	r10,32897
   431f0:	01c6303a 	nor	r3,zero,r7
   431f4:	3ac9883a 	add	r4,r7,r11
   431f8:	52a02004 	addi	r10,r10,-32640
   431fc:	20c6703a 	and	r3,r4,r3
   43200:	1a86703a 	and	r3,r3,r10
   43204:	18000c1e 	bne	r3,zero,43238 <strcpy+0x68>
   43208:	1011883a 	mov	r8,r2
   4320c:	41c00015 	stw	r7,0(r8)
   43210:	29400104 	addi	r5,r5,4
   43214:	29c00017 	ldw	r7,0(r5)
   43218:	41800104 	addi	r6,r8,4
   4321c:	3011883a 	mov	r8,r6
   43220:	3ad3883a 	add	r9,r7,r11
   43224:	01c6303a 	nor	r3,zero,r7
   43228:	48c6703a 	and	r3,r9,r3
   4322c:	1a86703a 	and	r3,r3,r10
   43230:	183ff626 	beq	r3,zero,4320c <__alt_data_end+0xfffd120c>
   43234:	00000106 	br	4323c <strcpy+0x6c>
   43238:	100d883a 	mov	r6,r2
   4323c:	28c00003 	ldbu	r3,0(r5)
   43240:	31800044 	addi	r6,r6,1
   43244:	29400044 	addi	r5,r5,1
   43248:	30ffffc5 	stb	r3,-1(r6)
   4324c:	18c03fcc 	andi	r3,r3,255
   43250:	18c0201c 	xori	r3,r3,128
   43254:	18ffe004 	addi	r3,r3,-128
   43258:	183ff81e 	bne	r3,zero,4323c <__alt_data_end+0xfffd123c>
   4325c:	f800283a 	ret

00043260 <strlen>:
   43260:	208000cc 	andi	r2,r4,3
   43264:	10002026 	beq	r2,zero,432e8 <strlen+0x88>
   43268:	20800007 	ldb	r2,0(r4)
   4326c:	10002026 	beq	r2,zero,432f0 <strlen+0x90>
   43270:	2005883a 	mov	r2,r4
   43274:	00000206 	br	43280 <strlen+0x20>
   43278:	10c00007 	ldb	r3,0(r2)
   4327c:	18001826 	beq	r3,zero,432e0 <strlen+0x80>
   43280:	10800044 	addi	r2,r2,1
   43284:	10c000cc 	andi	r3,r2,3
   43288:	183ffb1e 	bne	r3,zero,43278 <__alt_data_end+0xfffd1278>
   4328c:	10c00017 	ldw	r3,0(r2)
   43290:	01ffbff4 	movhi	r7,65279
   43294:	39ffbfc4 	addi	r7,r7,-257
   43298:	00ca303a 	nor	r5,zero,r3
   4329c:	01a02074 	movhi	r6,32897
   432a0:	19c7883a 	add	r3,r3,r7
   432a4:	31a02004 	addi	r6,r6,-32640
   432a8:	1946703a 	and	r3,r3,r5
   432ac:	1986703a 	and	r3,r3,r6
   432b0:	1800091e 	bne	r3,zero,432d8 <strlen+0x78>
   432b4:	10800104 	addi	r2,r2,4
   432b8:	10c00017 	ldw	r3,0(r2)
   432bc:	19cb883a 	add	r5,r3,r7
   432c0:	00c6303a 	nor	r3,zero,r3
   432c4:	28c6703a 	and	r3,r5,r3
   432c8:	1986703a 	and	r3,r3,r6
   432cc:	183ff926 	beq	r3,zero,432b4 <__alt_data_end+0xfffd12b4>
   432d0:	00000106 	br	432d8 <strlen+0x78>
   432d4:	10800044 	addi	r2,r2,1
   432d8:	10c00007 	ldb	r3,0(r2)
   432dc:	183ffd1e 	bne	r3,zero,432d4 <__alt_data_end+0xfffd12d4>
   432e0:	1105c83a 	sub	r2,r2,r4
   432e4:	f800283a 	ret
   432e8:	2005883a 	mov	r2,r4
   432ec:	003fe706 	br	4328c <__alt_data_end+0xfffd128c>
   432f0:	0005883a 	mov	r2,zero
   432f4:	f800283a 	ret

000432f8 <time>:
   432f8:	00800174 	movhi	r2,5
   432fc:	defffc04 	addi	sp,sp,-16
   43300:	10931604 	addi	r2,r2,19544
   43304:	dc000215 	stw	r16,8(sp)
   43308:	2021883a 	mov	r16,r4
   4330c:	11000017 	ldw	r4,0(r2)
   43310:	000d883a 	mov	r6,zero
   43314:	d80b883a 	mov	r5,sp
   43318:	dfc00315 	stw	ra,12(sp)
   4331c:	00482140 	call	48214 <_gettimeofday_r>
   43320:	10000716 	blt	r2,zero,43340 <time+0x48>
   43324:	d8800017 	ldw	r2,0(sp)
   43328:	80000126 	beq	r16,zero,43330 <time+0x38>
   4332c:	80800015 	stw	r2,0(r16)
   43330:	dfc00317 	ldw	ra,12(sp)
   43334:	dc000217 	ldw	r16,8(sp)
   43338:	dec00404 	addi	sp,sp,16
   4333c:	f800283a 	ret
   43340:	00bfffc4 	movi	r2,-1
   43344:	003ffa06 	br	43330 <__alt_data_end+0xfffd1330>

00043348 <___vfprintf_internal_r>:
   43348:	deffb804 	addi	sp,sp,-288
   4334c:	dfc04715 	stw	ra,284(sp)
   43350:	ddc04515 	stw	r23,276(sp)
   43354:	dd404315 	stw	r21,268(sp)
   43358:	d9002c15 	stw	r4,176(sp)
   4335c:	282f883a 	mov	r23,r5
   43360:	302b883a 	mov	r21,r6
   43364:	d9c02d15 	stw	r7,180(sp)
   43368:	df004615 	stw	fp,280(sp)
   4336c:	dd804415 	stw	r22,272(sp)
   43370:	dd004215 	stw	r20,264(sp)
   43374:	dcc04115 	stw	r19,260(sp)
   43378:	dc804015 	stw	r18,256(sp)
   4337c:	dc403f15 	stw	r17,252(sp)
   43380:	dc003e15 	stw	r16,248(sp)
   43384:	00483700 	call	48370 <_localeconv_r>
   43388:	10800017 	ldw	r2,0(r2)
   4338c:	1009883a 	mov	r4,r2
   43390:	d8803415 	stw	r2,208(sp)
   43394:	00432600 	call	43260 <strlen>
   43398:	d8803715 	stw	r2,220(sp)
   4339c:	d8802c17 	ldw	r2,176(sp)
   433a0:	10000226 	beq	r2,zero,433ac <___vfprintf_internal_r+0x64>
   433a4:	10800e17 	ldw	r2,56(r2)
   433a8:	1000f926 	beq	r2,zero,43790 <___vfprintf_internal_r+0x448>
   433ac:	b880030b 	ldhu	r2,12(r23)
   433b0:	10c8000c 	andi	r3,r2,8192
   433b4:	1800061e 	bne	r3,zero,433d0 <___vfprintf_internal_r+0x88>
   433b8:	b9001917 	ldw	r4,100(r23)
   433bc:	00f7ffc4 	movi	r3,-8193
   433c0:	10880014 	ori	r2,r2,8192
   433c4:	20c6703a 	and	r3,r4,r3
   433c8:	b880030d 	sth	r2,12(r23)
   433cc:	b8c01915 	stw	r3,100(r23)
   433d0:	10c0020c 	andi	r3,r2,8
   433d4:	1800c126 	beq	r3,zero,436dc <___vfprintf_internal_r+0x394>
   433d8:	b8c00417 	ldw	r3,16(r23)
   433dc:	1800bf26 	beq	r3,zero,436dc <___vfprintf_internal_r+0x394>
   433e0:	1080068c 	andi	r2,r2,26
   433e4:	00c00284 	movi	r3,10
   433e8:	10c0c426 	beq	r2,r3,436fc <___vfprintf_internal_r+0x3b4>
   433ec:	d8c00404 	addi	r3,sp,16
   433f0:	05000174 	movhi	r20,5
   433f4:	d9001e04 	addi	r4,sp,120
   433f8:	a50a2d84 	addi	r20,r20,10422
   433fc:	d8c01e15 	stw	r3,120(sp)
   43400:	d8002015 	stw	zero,128(sp)
   43404:	d8001f15 	stw	zero,124(sp)
   43408:	d8003315 	stw	zero,204(sp)
   4340c:	d8003615 	stw	zero,216(sp)
   43410:	d8003815 	stw	zero,224(sp)
   43414:	1811883a 	mov	r8,r3
   43418:	d8003915 	stw	zero,228(sp)
   4341c:	d8003a15 	stw	zero,232(sp)
   43420:	d8002f15 	stw	zero,188(sp)
   43424:	d9002815 	stw	r4,160(sp)
   43428:	a8800007 	ldb	r2,0(r21)
   4342c:	10027b26 	beq	r2,zero,43e1c <___vfprintf_internal_r+0xad4>
   43430:	00c00944 	movi	r3,37
   43434:	a821883a 	mov	r16,r21
   43438:	10c0021e 	bne	r2,r3,43444 <___vfprintf_internal_r+0xfc>
   4343c:	00001406 	br	43490 <___vfprintf_internal_r+0x148>
   43440:	10c00326 	beq	r2,r3,43450 <___vfprintf_internal_r+0x108>
   43444:	84000044 	addi	r16,r16,1
   43448:	80800007 	ldb	r2,0(r16)
   4344c:	103ffc1e 	bne	r2,zero,43440 <__alt_data_end+0xfffd1440>
   43450:	8563c83a 	sub	r17,r16,r21
   43454:	88000e26 	beq	r17,zero,43490 <___vfprintf_internal_r+0x148>
   43458:	d8c02017 	ldw	r3,128(sp)
   4345c:	d8801f17 	ldw	r2,124(sp)
   43460:	45400015 	stw	r21,0(r8)
   43464:	1c47883a 	add	r3,r3,r17
   43468:	10800044 	addi	r2,r2,1
   4346c:	d8c02015 	stw	r3,128(sp)
   43470:	44400115 	stw	r17,4(r8)
   43474:	d8801f15 	stw	r2,124(sp)
   43478:	00c001c4 	movi	r3,7
   4347c:	1880a716 	blt	r3,r2,4371c <___vfprintf_internal_r+0x3d4>
   43480:	42000204 	addi	r8,r8,8
   43484:	d9402f17 	ldw	r5,188(sp)
   43488:	2c4b883a 	add	r5,r5,r17
   4348c:	d9402f15 	stw	r5,188(sp)
   43490:	80800007 	ldb	r2,0(r16)
   43494:	1000a826 	beq	r2,zero,43738 <___vfprintf_internal_r+0x3f0>
   43498:	84400047 	ldb	r17,1(r16)
   4349c:	00bfffc4 	movi	r2,-1
   434a0:	85400044 	addi	r21,r16,1
   434a4:	d8002785 	stb	zero,158(sp)
   434a8:	0007883a 	mov	r3,zero
   434ac:	000f883a 	mov	r7,zero
   434b0:	d8802915 	stw	r2,164(sp)
   434b4:	d8003115 	stw	zero,196(sp)
   434b8:	0025883a 	mov	r18,zero
   434bc:	01401604 	movi	r5,88
   434c0:	01800244 	movi	r6,9
   434c4:	02800a84 	movi	r10,42
   434c8:	02401b04 	movi	r9,108
   434cc:	ad400044 	addi	r21,r21,1
   434d0:	88bff804 	addi	r2,r17,-32
   434d4:	28830436 	bltu	r5,r2,440e8 <___vfprintf_internal_r+0xda0>
   434d8:	100490ba 	slli	r2,r2,2
   434dc:	01000134 	movhi	r4,4
   434e0:	210d3c04 	addi	r4,r4,13552
   434e4:	1105883a 	add	r2,r2,r4
   434e8:	10800017 	ldw	r2,0(r2)
   434ec:	1000683a 	jmp	r2
   434f0:	00044008 	cmpgei	zero,zero,4352
   434f4:	000440e8 	cmpgeui	zero,zero,4355
   434f8:	000440e8 	cmpgeui	zero,zero,4355
   434fc:	00044028 	cmpgeui	zero,zero,4352
   43500:	000440e8 	cmpgeui	zero,zero,4355
   43504:	000440e8 	cmpgeui	zero,zero,4355
   43508:	000440e8 	cmpgeui	zero,zero,4355
   4350c:	000440e8 	cmpgeui	zero,zero,4355
   43510:	000440e8 	cmpgeui	zero,zero,4355
   43514:	000440e8 	cmpgeui	zero,zero,4355
   43518:	0004379c 	xori	zero,zero,4318
   4351c:	00043f44 	movi	zero,4349
   43520:	000440e8 	cmpgeui	zero,zero,4355
   43524:	00043664 	muli	zero,zero,4313
   43528:	000437c4 	movi	zero,4319
   4352c:	000440e8 	cmpgeui	zero,zero,4355
   43530:	00043804 	movi	zero,4320
   43534:	00043810 	cmplti	zero,zero,4320
   43538:	00043810 	cmplti	zero,zero,4320
   4353c:	00043810 	cmplti	zero,zero,4320
   43540:	00043810 	cmplti	zero,zero,4320
   43544:	00043810 	cmplti	zero,zero,4320
   43548:	00043810 	cmplti	zero,zero,4320
   4354c:	00043810 	cmplti	zero,zero,4320
   43550:	00043810 	cmplti	zero,zero,4320
   43554:	00043810 	cmplti	zero,zero,4320
   43558:	000440e8 	cmpgeui	zero,zero,4355
   4355c:	000440e8 	cmpgeui	zero,zero,4355
   43560:	000440e8 	cmpgeui	zero,zero,4355
   43564:	000440e8 	cmpgeui	zero,zero,4355
   43568:	000440e8 	cmpgeui	zero,zero,4355
   4356c:	000440e8 	cmpgeui	zero,zero,4355
   43570:	000440e8 	cmpgeui	zero,zero,4355
   43574:	000440e8 	cmpgeui	zero,zero,4355
   43578:	000440e8 	cmpgeui	zero,zero,4355
   4357c:	000440e8 	cmpgeui	zero,zero,4355
   43580:	00043844 	movi	zero,4321
   43584:	00043900 	call	4390 <__alt_mem_onchip_memory2-0x3bc70>
   43588:	000440e8 	cmpgeui	zero,zero,4355
   4358c:	00043900 	call	4390 <__alt_mem_onchip_memory2-0x3bc70>
   43590:	000440e8 	cmpgeui	zero,zero,4355
   43594:	000440e8 	cmpgeui	zero,zero,4355
   43598:	000440e8 	cmpgeui	zero,zero,4355
   4359c:	000440e8 	cmpgeui	zero,zero,4355
   435a0:	000439a0 	cmpeqi	zero,zero,4326
   435a4:	000440e8 	cmpgeui	zero,zero,4355
   435a8:	000440e8 	cmpgeui	zero,zero,4355
   435ac:	000439ac 	andhi	zero,zero,4326
   435b0:	000440e8 	cmpgeui	zero,zero,4355
   435b4:	000440e8 	cmpgeui	zero,zero,4355
   435b8:	000440e8 	cmpgeui	zero,zero,4355
   435bc:	000440e8 	cmpgeui	zero,zero,4355
   435c0:	000440e8 	cmpgeui	zero,zero,4355
   435c4:	00043e24 	muli	zero,zero,4344
   435c8:	000440e8 	cmpgeui	zero,zero,4355
   435cc:	000440e8 	cmpgeui	zero,zero,4355
   435d0:	00043e84 	movi	zero,4346
   435d4:	000440e8 	cmpgeui	zero,zero,4355
   435d8:	000440e8 	cmpgeui	zero,zero,4355
   435dc:	000440e8 	cmpgeui	zero,zero,4355
   435e0:	000440e8 	cmpgeui	zero,zero,4355
   435e4:	000440e8 	cmpgeui	zero,zero,4355
   435e8:	000440e8 	cmpgeui	zero,zero,4355
   435ec:	000440e8 	cmpgeui	zero,zero,4355
   435f0:	000440e8 	cmpgeui	zero,zero,4355
   435f4:	000440e8 	cmpgeui	zero,zero,4355
   435f8:	000440e8 	cmpgeui	zero,zero,4355
   435fc:	00044094 	movui	zero,4354
   43600:	00044034 	movhi	zero,4352
   43604:	00043900 	call	4390 <__alt_mem_onchip_memory2-0x3bc70>
   43608:	00043900 	call	4390 <__alt_mem_onchip_memory2-0x3bc70>
   4360c:	00043900 	call	4390 <__alt_mem_onchip_memory2-0x3bc70>
   43610:	00044044 	movi	zero,4353
   43614:	00044034 	movhi	zero,4352
   43618:	000440e8 	cmpgeui	zero,zero,4355
   4361c:	000440e8 	cmpgeui	zero,zero,4355
   43620:	00044050 	cmplti	zero,zero,4353
   43624:	000440e8 	cmpgeui	zero,zero,4355
   43628:	00044060 	cmpeqi	zero,zero,4353
   4362c:	00043f34 	movhi	zero,4348
   43630:	00043670 	cmpltui	zero,zero,4313
   43634:	00043f54 	movui	zero,4349
   43638:	000440e8 	cmpgeui	zero,zero,4355
   4363c:	00043f60 	cmpeqi	zero,zero,4349
   43640:	000440e8 	cmpgeui	zero,zero,4355
   43644:	00043fbc 	xorhi	zero,zero,4350
   43648:	000440e8 	cmpgeui	zero,zero,4355
   4364c:	000440e8 	cmpgeui	zero,zero,4355
   43650:	00043fcc 	andi	zero,zero,4351
   43654:	d9003117 	ldw	r4,196(sp)
   43658:	d8802d15 	stw	r2,180(sp)
   4365c:	0109c83a 	sub	r4,zero,r4
   43660:	d9003115 	stw	r4,196(sp)
   43664:	94800114 	ori	r18,r18,4
   43668:	ac400007 	ldb	r17,0(r21)
   4366c:	003f9706 	br	434cc <__alt_data_end+0xfffd14cc>
   43670:	00800c04 	movi	r2,48
   43674:	d9002d17 	ldw	r4,180(sp)
   43678:	d9402917 	ldw	r5,164(sp)
   4367c:	d8802705 	stb	r2,156(sp)
   43680:	00801e04 	movi	r2,120
   43684:	d8802745 	stb	r2,157(sp)
   43688:	d8002785 	stb	zero,158(sp)
   4368c:	20c00104 	addi	r3,r4,4
   43690:	24c00017 	ldw	r19,0(r4)
   43694:	002d883a 	mov	r22,zero
   43698:	90800094 	ori	r2,r18,2
   4369c:	28029a16 	blt	r5,zero,44108 <___vfprintf_internal_r+0xdc0>
   436a0:	00bfdfc4 	movi	r2,-129
   436a4:	90a4703a 	and	r18,r18,r2
   436a8:	d8c02d15 	stw	r3,180(sp)
   436ac:	94800094 	ori	r18,r18,2
   436b0:	9802871e 	bne	r19,zero,440d0 <___vfprintf_internal_r+0xd88>
   436b4:	00800174 	movhi	r2,5
   436b8:	108a2604 	addi	r2,r2,10392
   436bc:	d8803915 	stw	r2,228(sp)
   436c0:	04401e04 	movi	r17,120
   436c4:	d8802917 	ldw	r2,164(sp)
   436c8:	0039883a 	mov	fp,zero
   436cc:	1001e926 	beq	r2,zero,43e74 <___vfprintf_internal_r+0xb2c>
   436d0:	0027883a 	mov	r19,zero
   436d4:	002d883a 	mov	r22,zero
   436d8:	00020506 	br	43ef0 <___vfprintf_internal_r+0xba8>
   436dc:	d9002c17 	ldw	r4,176(sp)
   436e0:	b80b883a 	mov	r5,r23
   436e4:	00456780 	call	45678 <__swsetup_r>
   436e8:	1005ac1e 	bne	r2,zero,44d9c <___vfprintf_internal_r+0x1a54>
   436ec:	b880030b 	ldhu	r2,12(r23)
   436f0:	00c00284 	movi	r3,10
   436f4:	1080068c 	andi	r2,r2,26
   436f8:	10ff3c1e 	bne	r2,r3,433ec <__alt_data_end+0xfffd13ec>
   436fc:	b880038f 	ldh	r2,14(r23)
   43700:	103f3a16 	blt	r2,zero,433ec <__alt_data_end+0xfffd13ec>
   43704:	d9c02d17 	ldw	r7,180(sp)
   43708:	d9002c17 	ldw	r4,176(sp)
   4370c:	a80d883a 	mov	r6,r21
   43710:	b80b883a 	mov	r5,r23
   43714:	004555c0 	call	4555c <__sbprintf>
   43718:	00001106 	br	43760 <___vfprintf_internal_r+0x418>
   4371c:	d9002c17 	ldw	r4,176(sp)
   43720:	d9801e04 	addi	r6,sp,120
   43724:	b80b883a 	mov	r5,r23
   43728:	0049f940 	call	49f94 <__sprint_r>
   4372c:	1000081e 	bne	r2,zero,43750 <___vfprintf_internal_r+0x408>
   43730:	da000404 	addi	r8,sp,16
   43734:	003f5306 	br	43484 <__alt_data_end+0xfffd1484>
   43738:	d8802017 	ldw	r2,128(sp)
   4373c:	10000426 	beq	r2,zero,43750 <___vfprintf_internal_r+0x408>
   43740:	d9002c17 	ldw	r4,176(sp)
   43744:	d9801e04 	addi	r6,sp,120
   43748:	b80b883a 	mov	r5,r23
   4374c:	0049f940 	call	49f94 <__sprint_r>
   43750:	b880030b 	ldhu	r2,12(r23)
   43754:	1080100c 	andi	r2,r2,64
   43758:	1005901e 	bne	r2,zero,44d9c <___vfprintf_internal_r+0x1a54>
   4375c:	d8802f17 	ldw	r2,188(sp)
   43760:	dfc04717 	ldw	ra,284(sp)
   43764:	df004617 	ldw	fp,280(sp)
   43768:	ddc04517 	ldw	r23,276(sp)
   4376c:	dd804417 	ldw	r22,272(sp)
   43770:	dd404317 	ldw	r21,268(sp)
   43774:	dd004217 	ldw	r20,264(sp)
   43778:	dcc04117 	ldw	r19,260(sp)
   4377c:	dc804017 	ldw	r18,256(sp)
   43780:	dc403f17 	ldw	r17,252(sp)
   43784:	dc003e17 	ldw	r16,248(sp)
   43788:	dec04804 	addi	sp,sp,288
   4378c:	f800283a 	ret
   43790:	d9002c17 	ldw	r4,176(sp)
   43794:	00476a00 	call	476a0 <__sinit>
   43798:	003f0406 	br	433ac <__alt_data_end+0xfffd13ac>
   4379c:	d8802d17 	ldw	r2,180(sp)
   437a0:	d9002d17 	ldw	r4,180(sp)
   437a4:	10800017 	ldw	r2,0(r2)
   437a8:	d8803115 	stw	r2,196(sp)
   437ac:	20800104 	addi	r2,r4,4
   437b0:	d9003117 	ldw	r4,196(sp)
   437b4:	203fa716 	blt	r4,zero,43654 <__alt_data_end+0xfffd1654>
   437b8:	d8802d15 	stw	r2,180(sp)
   437bc:	ac400007 	ldb	r17,0(r21)
   437c0:	003f4206 	br	434cc <__alt_data_end+0xfffd14cc>
   437c4:	ac400007 	ldb	r17,0(r21)
   437c8:	aac00044 	addi	r11,r21,1
   437cc:	8a872826 	beq	r17,r10,45470 <___vfprintf_internal_r+0x2128>
   437d0:	88bff404 	addi	r2,r17,-48
   437d4:	0009883a 	mov	r4,zero
   437d8:	30867d36 	bltu	r6,r2,451d0 <___vfprintf_internal_r+0x1e88>
   437dc:	5c400007 	ldb	r17,0(r11)
   437e0:	210002a4 	muli	r4,r4,10
   437e4:	5d400044 	addi	r21,r11,1
   437e8:	a817883a 	mov	r11,r21
   437ec:	2089883a 	add	r4,r4,r2
   437f0:	88bff404 	addi	r2,r17,-48
   437f4:	30bff92e 	bgeu	r6,r2,437dc <__alt_data_end+0xfffd17dc>
   437f8:	2005c916 	blt	r4,zero,44f20 <___vfprintf_internal_r+0x1bd8>
   437fc:	d9002915 	stw	r4,164(sp)
   43800:	003f3306 	br	434d0 <__alt_data_end+0xfffd14d0>
   43804:	94802014 	ori	r18,r18,128
   43808:	ac400007 	ldb	r17,0(r21)
   4380c:	003f2f06 	br	434cc <__alt_data_end+0xfffd14cc>
   43810:	a809883a 	mov	r4,r21
   43814:	d8003115 	stw	zero,196(sp)
   43818:	88bff404 	addi	r2,r17,-48
   4381c:	0017883a 	mov	r11,zero
   43820:	24400007 	ldb	r17,0(r4)
   43824:	5ac002a4 	muli	r11,r11,10
   43828:	ad400044 	addi	r21,r21,1
   4382c:	a809883a 	mov	r4,r21
   43830:	12d7883a 	add	r11,r2,r11
   43834:	88bff404 	addi	r2,r17,-48
   43838:	30bff92e 	bgeu	r6,r2,43820 <__alt_data_end+0xfffd1820>
   4383c:	dac03115 	stw	r11,196(sp)
   43840:	003f2306 	br	434d0 <__alt_data_end+0xfffd14d0>
   43844:	18c03fcc 	andi	r3,r3,255
   43848:	18072b1e 	bne	r3,zero,454f8 <___vfprintf_internal_r+0x21b0>
   4384c:	94800414 	ori	r18,r18,16
   43850:	9080080c 	andi	r2,r18,32
   43854:	10037b26 	beq	r2,zero,44644 <___vfprintf_internal_r+0x12fc>
   43858:	d9402d17 	ldw	r5,180(sp)
   4385c:	28800117 	ldw	r2,4(r5)
   43860:	2cc00017 	ldw	r19,0(r5)
   43864:	29400204 	addi	r5,r5,8
   43868:	d9402d15 	stw	r5,180(sp)
   4386c:	102d883a 	mov	r22,r2
   43870:	10044b16 	blt	r2,zero,449a0 <___vfprintf_internal_r+0x1658>
   43874:	d9402917 	ldw	r5,164(sp)
   43878:	df002783 	ldbu	fp,158(sp)
   4387c:	2803bc16 	blt	r5,zero,44770 <___vfprintf_internal_r+0x1428>
   43880:	00ffdfc4 	movi	r3,-129
   43884:	9d84b03a 	or	r2,r19,r22
   43888:	90e4703a 	and	r18,r18,r3
   4388c:	10017726 	beq	r2,zero,43e6c <___vfprintf_internal_r+0xb24>
   43890:	b0038326 	beq	r22,zero,446a0 <___vfprintf_internal_r+0x1358>
   43894:	dc402a15 	stw	r17,168(sp)
   43898:	dc001e04 	addi	r16,sp,120
   4389c:	b023883a 	mov	r17,r22
   438a0:	402d883a 	mov	r22,r8
   438a4:	9809883a 	mov	r4,r19
   438a8:	880b883a 	mov	r5,r17
   438ac:	01800284 	movi	r6,10
   438b0:	000f883a 	mov	r7,zero
   438b4:	004c1c80 	call	4c1c8 <__umoddi3>
   438b8:	10800c04 	addi	r2,r2,48
   438bc:	843fffc4 	addi	r16,r16,-1
   438c0:	9809883a 	mov	r4,r19
   438c4:	880b883a 	mov	r5,r17
   438c8:	80800005 	stb	r2,0(r16)
   438cc:	01800284 	movi	r6,10
   438d0:	000f883a 	mov	r7,zero
   438d4:	004bc500 	call	4bc50 <__udivdi3>
   438d8:	1027883a 	mov	r19,r2
   438dc:	10c4b03a 	or	r2,r2,r3
   438e0:	1823883a 	mov	r17,r3
   438e4:	103fef1e 	bne	r2,zero,438a4 <__alt_data_end+0xfffd18a4>
   438e8:	d8c02817 	ldw	r3,160(sp)
   438ec:	dc402a17 	ldw	r17,168(sp)
   438f0:	b011883a 	mov	r8,r22
   438f4:	1c07c83a 	sub	r3,r3,r16
   438f8:	d8c02e15 	stw	r3,184(sp)
   438fc:	00005906 	br	43a64 <___vfprintf_internal_r+0x71c>
   43900:	18c03fcc 	andi	r3,r3,255
   43904:	1806fa1e 	bne	r3,zero,454f0 <___vfprintf_internal_r+0x21a8>
   43908:	9080020c 	andi	r2,r18,8
   4390c:	10048a26 	beq	r2,zero,44b38 <___vfprintf_internal_r+0x17f0>
   43910:	d8c02d17 	ldw	r3,180(sp)
   43914:	d9002d17 	ldw	r4,180(sp)
   43918:	d9402d17 	ldw	r5,180(sp)
   4391c:	18c00017 	ldw	r3,0(r3)
   43920:	21000117 	ldw	r4,4(r4)
   43924:	29400204 	addi	r5,r5,8
   43928:	d8c03615 	stw	r3,216(sp)
   4392c:	d9003815 	stw	r4,224(sp)
   43930:	d9402d15 	stw	r5,180(sp)
   43934:	d9003617 	ldw	r4,216(sp)
   43938:	d9403817 	ldw	r5,224(sp)
   4393c:	da003d15 	stw	r8,244(sp)
   43940:	04000044 	movi	r16,1
   43944:	0049d480 	call	49d48 <__fpclassifyd>
   43948:	da003d17 	ldw	r8,244(sp)
   4394c:	14041f1e 	bne	r2,r16,449cc <___vfprintf_internal_r+0x1684>
   43950:	d9003617 	ldw	r4,216(sp)
   43954:	d9403817 	ldw	r5,224(sp)
   43958:	000d883a 	mov	r6,zero
   4395c:	000f883a 	mov	r7,zero
   43960:	004d9f80 	call	4d9f8 <__ledf2>
   43964:	da003d17 	ldw	r8,244(sp)
   43968:	1005be16 	blt	r2,zero,45064 <___vfprintf_internal_r+0x1d1c>
   4396c:	df002783 	ldbu	fp,158(sp)
   43970:	008011c4 	movi	r2,71
   43974:	1445330e 	bge	r2,r17,44e44 <___vfprintf_internal_r+0x1afc>
   43978:	04000174 	movhi	r16,5
   4397c:	840a1e04 	addi	r16,r16,10360
   43980:	00c000c4 	movi	r3,3
   43984:	00bfdfc4 	movi	r2,-129
   43988:	d8c02a15 	stw	r3,168(sp)
   4398c:	90a4703a 	and	r18,r18,r2
   43990:	d8c02e15 	stw	r3,184(sp)
   43994:	d8002915 	stw	zero,164(sp)
   43998:	d8003215 	stw	zero,200(sp)
   4399c:	00003706 	br	43a7c <___vfprintf_internal_r+0x734>
   439a0:	94800214 	ori	r18,r18,8
   439a4:	ac400007 	ldb	r17,0(r21)
   439a8:	003ec806 	br	434cc <__alt_data_end+0xfffd14cc>
   439ac:	18c03fcc 	andi	r3,r3,255
   439b0:	1806db1e 	bne	r3,zero,45520 <___vfprintf_internal_r+0x21d8>
   439b4:	94800414 	ori	r18,r18,16
   439b8:	9080080c 	andi	r2,r18,32
   439bc:	1002d826 	beq	r2,zero,44520 <___vfprintf_internal_r+0x11d8>
   439c0:	d9402d17 	ldw	r5,180(sp)
   439c4:	d8c02917 	ldw	r3,164(sp)
   439c8:	d8002785 	stb	zero,158(sp)
   439cc:	28800204 	addi	r2,r5,8
   439d0:	2cc00017 	ldw	r19,0(r5)
   439d4:	2d800117 	ldw	r22,4(r5)
   439d8:	18048f16 	blt	r3,zero,44c18 <___vfprintf_internal_r+0x18d0>
   439dc:	013fdfc4 	movi	r4,-129
   439e0:	9d86b03a 	or	r3,r19,r22
   439e4:	d8802d15 	stw	r2,180(sp)
   439e8:	9124703a 	and	r18,r18,r4
   439ec:	1802d91e 	bne	r3,zero,44554 <___vfprintf_internal_r+0x120c>
   439f0:	d8c02917 	ldw	r3,164(sp)
   439f4:	0039883a 	mov	fp,zero
   439f8:	1805c326 	beq	r3,zero,45108 <___vfprintf_internal_r+0x1dc0>
   439fc:	0027883a 	mov	r19,zero
   43a00:	002d883a 	mov	r22,zero
   43a04:	dc001e04 	addi	r16,sp,120
   43a08:	9806d0fa 	srli	r3,r19,3
   43a0c:	b008977a 	slli	r4,r22,29
   43a10:	b02cd0fa 	srli	r22,r22,3
   43a14:	9cc001cc 	andi	r19,r19,7
   43a18:	98800c04 	addi	r2,r19,48
   43a1c:	843fffc4 	addi	r16,r16,-1
   43a20:	20e6b03a 	or	r19,r4,r3
   43a24:	80800005 	stb	r2,0(r16)
   43a28:	9d86b03a 	or	r3,r19,r22
   43a2c:	183ff61e 	bne	r3,zero,43a08 <__alt_data_end+0xfffd1a08>
   43a30:	90c0004c 	andi	r3,r18,1
   43a34:	18013b26 	beq	r3,zero,43f24 <___vfprintf_internal_r+0xbdc>
   43a38:	10803fcc 	andi	r2,r2,255
   43a3c:	1080201c 	xori	r2,r2,128
   43a40:	10bfe004 	addi	r2,r2,-128
   43a44:	00c00c04 	movi	r3,48
   43a48:	10c13626 	beq	r2,r3,43f24 <___vfprintf_internal_r+0xbdc>
   43a4c:	80ffffc5 	stb	r3,-1(r16)
   43a50:	d8c02817 	ldw	r3,160(sp)
   43a54:	80bfffc4 	addi	r2,r16,-1
   43a58:	1021883a 	mov	r16,r2
   43a5c:	1887c83a 	sub	r3,r3,r2
   43a60:	d8c02e15 	stw	r3,184(sp)
   43a64:	d8802e17 	ldw	r2,184(sp)
   43a68:	d9002917 	ldw	r4,164(sp)
   43a6c:	1100010e 	bge	r2,r4,43a74 <___vfprintf_internal_r+0x72c>
   43a70:	2005883a 	mov	r2,r4
   43a74:	d8802a15 	stw	r2,168(sp)
   43a78:	d8003215 	stw	zero,200(sp)
   43a7c:	e7003fcc 	andi	fp,fp,255
   43a80:	e700201c 	xori	fp,fp,128
   43a84:	e73fe004 	addi	fp,fp,-128
   43a88:	e0000326 	beq	fp,zero,43a98 <___vfprintf_internal_r+0x750>
   43a8c:	d8c02a17 	ldw	r3,168(sp)
   43a90:	18c00044 	addi	r3,r3,1
   43a94:	d8c02a15 	stw	r3,168(sp)
   43a98:	90c0008c 	andi	r3,r18,2
   43a9c:	d8c02b15 	stw	r3,172(sp)
   43aa0:	18000326 	beq	r3,zero,43ab0 <___vfprintf_internal_r+0x768>
   43aa4:	d8c02a17 	ldw	r3,168(sp)
   43aa8:	18c00084 	addi	r3,r3,2
   43aac:	d8c02a15 	stw	r3,168(sp)
   43ab0:	90c0210c 	andi	r3,r18,132
   43ab4:	d8c03015 	stw	r3,192(sp)
   43ab8:	1801a31e 	bne	r3,zero,44148 <___vfprintf_internal_r+0xe00>
   43abc:	d9003117 	ldw	r4,196(sp)
   43ac0:	d8c02a17 	ldw	r3,168(sp)
   43ac4:	20e7c83a 	sub	r19,r4,r3
   43ac8:	04c19f0e 	bge	zero,r19,44148 <___vfprintf_internal_r+0xe00>
   43acc:	02400404 	movi	r9,16
   43ad0:	d8c02017 	ldw	r3,128(sp)
   43ad4:	d8801f17 	ldw	r2,124(sp)
   43ad8:	4cc50d0e 	bge	r9,r19,44f10 <___vfprintf_internal_r+0x1bc8>
   43adc:	01400174 	movhi	r5,5
   43ae0:	294a3184 	addi	r5,r5,10438
   43ae4:	dc403b15 	stw	r17,236(sp)
   43ae8:	d9403515 	stw	r5,212(sp)
   43aec:	9823883a 	mov	r17,r19
   43af0:	482d883a 	mov	r22,r9
   43af4:	9027883a 	mov	r19,r18
   43af8:	070001c4 	movi	fp,7
   43afc:	8025883a 	mov	r18,r16
   43b00:	dc002c17 	ldw	r16,176(sp)
   43b04:	00000306 	br	43b14 <___vfprintf_internal_r+0x7cc>
   43b08:	8c7ffc04 	addi	r17,r17,-16
   43b0c:	42000204 	addi	r8,r8,8
   43b10:	b440130e 	bge	r22,r17,43b60 <___vfprintf_internal_r+0x818>
   43b14:	01000174 	movhi	r4,5
   43b18:	18c00404 	addi	r3,r3,16
   43b1c:	10800044 	addi	r2,r2,1
   43b20:	210a3184 	addi	r4,r4,10438
   43b24:	41000015 	stw	r4,0(r8)
   43b28:	45800115 	stw	r22,4(r8)
   43b2c:	d8c02015 	stw	r3,128(sp)
   43b30:	d8801f15 	stw	r2,124(sp)
   43b34:	e0bff40e 	bge	fp,r2,43b08 <__alt_data_end+0xfffd1b08>
   43b38:	d9801e04 	addi	r6,sp,120
   43b3c:	b80b883a 	mov	r5,r23
   43b40:	8009883a 	mov	r4,r16
   43b44:	0049f940 	call	49f94 <__sprint_r>
   43b48:	103f011e 	bne	r2,zero,43750 <__alt_data_end+0xfffd1750>
   43b4c:	8c7ffc04 	addi	r17,r17,-16
   43b50:	d8c02017 	ldw	r3,128(sp)
   43b54:	d8801f17 	ldw	r2,124(sp)
   43b58:	da000404 	addi	r8,sp,16
   43b5c:	b47fed16 	blt	r22,r17,43b14 <__alt_data_end+0xfffd1b14>
   43b60:	9021883a 	mov	r16,r18
   43b64:	9825883a 	mov	r18,r19
   43b68:	8827883a 	mov	r19,r17
   43b6c:	dc403b17 	ldw	r17,236(sp)
   43b70:	d9403517 	ldw	r5,212(sp)
   43b74:	98c7883a 	add	r3,r19,r3
   43b78:	10800044 	addi	r2,r2,1
   43b7c:	41400015 	stw	r5,0(r8)
   43b80:	44c00115 	stw	r19,4(r8)
   43b84:	d8c02015 	stw	r3,128(sp)
   43b88:	d8801f15 	stw	r2,124(sp)
   43b8c:	010001c4 	movi	r4,7
   43b90:	2082a316 	blt	r4,r2,44620 <___vfprintf_internal_r+0x12d8>
   43b94:	df002787 	ldb	fp,158(sp)
   43b98:	42000204 	addi	r8,r8,8
   43b9c:	e0000c26 	beq	fp,zero,43bd0 <___vfprintf_internal_r+0x888>
   43ba0:	d8801f17 	ldw	r2,124(sp)
   43ba4:	d9002784 	addi	r4,sp,158
   43ba8:	18c00044 	addi	r3,r3,1
   43bac:	10800044 	addi	r2,r2,1
   43bb0:	41000015 	stw	r4,0(r8)
   43bb4:	01000044 	movi	r4,1
   43bb8:	41000115 	stw	r4,4(r8)
   43bbc:	d8c02015 	stw	r3,128(sp)
   43bc0:	d8801f15 	stw	r2,124(sp)
   43bc4:	010001c4 	movi	r4,7
   43bc8:	20823c16 	blt	r4,r2,444bc <___vfprintf_internal_r+0x1174>
   43bcc:	42000204 	addi	r8,r8,8
   43bd0:	d8802b17 	ldw	r2,172(sp)
   43bd4:	10000c26 	beq	r2,zero,43c08 <___vfprintf_internal_r+0x8c0>
   43bd8:	d8801f17 	ldw	r2,124(sp)
   43bdc:	d9002704 	addi	r4,sp,156
   43be0:	18c00084 	addi	r3,r3,2
   43be4:	10800044 	addi	r2,r2,1
   43be8:	41000015 	stw	r4,0(r8)
   43bec:	01000084 	movi	r4,2
   43bf0:	41000115 	stw	r4,4(r8)
   43bf4:	d8c02015 	stw	r3,128(sp)
   43bf8:	d8801f15 	stw	r2,124(sp)
   43bfc:	010001c4 	movi	r4,7
   43c00:	20823616 	blt	r4,r2,444dc <___vfprintf_internal_r+0x1194>
   43c04:	42000204 	addi	r8,r8,8
   43c08:	d9003017 	ldw	r4,192(sp)
   43c0c:	00802004 	movi	r2,128
   43c10:	20819926 	beq	r4,r2,44278 <___vfprintf_internal_r+0xf30>
   43c14:	d9402917 	ldw	r5,164(sp)
   43c18:	d8802e17 	ldw	r2,184(sp)
   43c1c:	28adc83a 	sub	r22,r5,r2
   43c20:	0580310e 	bge	zero,r22,43ce8 <___vfprintf_internal_r+0x9a0>
   43c24:	07000404 	movi	fp,16
   43c28:	d8801f17 	ldw	r2,124(sp)
   43c2c:	e584140e 	bge	fp,r22,44c80 <___vfprintf_internal_r+0x1938>
   43c30:	01400174 	movhi	r5,5
   43c34:	294a2d84 	addi	r5,r5,10422
   43c38:	dc402915 	stw	r17,164(sp)
   43c3c:	d9402b15 	stw	r5,172(sp)
   43c40:	b023883a 	mov	r17,r22
   43c44:	04c001c4 	movi	r19,7
   43c48:	a82d883a 	mov	r22,r21
   43c4c:	902b883a 	mov	r21,r18
   43c50:	8025883a 	mov	r18,r16
   43c54:	dc002c17 	ldw	r16,176(sp)
   43c58:	00000306 	br	43c68 <___vfprintf_internal_r+0x920>
   43c5c:	8c7ffc04 	addi	r17,r17,-16
   43c60:	42000204 	addi	r8,r8,8
   43c64:	e440110e 	bge	fp,r17,43cac <___vfprintf_internal_r+0x964>
   43c68:	18c00404 	addi	r3,r3,16
   43c6c:	10800044 	addi	r2,r2,1
   43c70:	45000015 	stw	r20,0(r8)
   43c74:	47000115 	stw	fp,4(r8)
   43c78:	d8c02015 	stw	r3,128(sp)
   43c7c:	d8801f15 	stw	r2,124(sp)
   43c80:	98bff60e 	bge	r19,r2,43c5c <__alt_data_end+0xfffd1c5c>
   43c84:	d9801e04 	addi	r6,sp,120
   43c88:	b80b883a 	mov	r5,r23
   43c8c:	8009883a 	mov	r4,r16
   43c90:	0049f940 	call	49f94 <__sprint_r>
   43c94:	103eae1e 	bne	r2,zero,43750 <__alt_data_end+0xfffd1750>
   43c98:	8c7ffc04 	addi	r17,r17,-16
   43c9c:	d8c02017 	ldw	r3,128(sp)
   43ca0:	d8801f17 	ldw	r2,124(sp)
   43ca4:	da000404 	addi	r8,sp,16
   43ca8:	e47fef16 	blt	fp,r17,43c68 <__alt_data_end+0xfffd1c68>
   43cac:	9021883a 	mov	r16,r18
   43cb0:	a825883a 	mov	r18,r21
   43cb4:	b02b883a 	mov	r21,r22
   43cb8:	882d883a 	mov	r22,r17
   43cbc:	dc402917 	ldw	r17,164(sp)
   43cc0:	d9002b17 	ldw	r4,172(sp)
   43cc4:	1d87883a 	add	r3,r3,r22
   43cc8:	10800044 	addi	r2,r2,1
   43ccc:	41000015 	stw	r4,0(r8)
   43cd0:	45800115 	stw	r22,4(r8)
   43cd4:	d8c02015 	stw	r3,128(sp)
   43cd8:	d8801f15 	stw	r2,124(sp)
   43cdc:	010001c4 	movi	r4,7
   43ce0:	2081ee16 	blt	r4,r2,4449c <___vfprintf_internal_r+0x1154>
   43ce4:	42000204 	addi	r8,r8,8
   43ce8:	9080400c 	andi	r2,r18,256
   43cec:	1001181e 	bne	r2,zero,44150 <___vfprintf_internal_r+0xe08>
   43cf0:	d9402e17 	ldw	r5,184(sp)
   43cf4:	d8801f17 	ldw	r2,124(sp)
   43cf8:	44000015 	stw	r16,0(r8)
   43cfc:	1947883a 	add	r3,r3,r5
   43d00:	10800044 	addi	r2,r2,1
   43d04:	41400115 	stw	r5,4(r8)
   43d08:	d8c02015 	stw	r3,128(sp)
   43d0c:	d8801f15 	stw	r2,124(sp)
   43d10:	010001c4 	movi	r4,7
   43d14:	2081d316 	blt	r4,r2,44464 <___vfprintf_internal_r+0x111c>
   43d18:	42000204 	addi	r8,r8,8
   43d1c:	9480010c 	andi	r18,r18,4
   43d20:	90003226 	beq	r18,zero,43dec <___vfprintf_internal_r+0xaa4>
   43d24:	d9403117 	ldw	r5,196(sp)
   43d28:	d8802a17 	ldw	r2,168(sp)
   43d2c:	28a1c83a 	sub	r16,r5,r2
   43d30:	04002e0e 	bge	zero,r16,43dec <___vfprintf_internal_r+0xaa4>
   43d34:	04400404 	movi	r17,16
   43d38:	d8801f17 	ldw	r2,124(sp)
   43d3c:	8c04a20e 	bge	r17,r16,44fc8 <___vfprintf_internal_r+0x1c80>
   43d40:	01400174 	movhi	r5,5
   43d44:	294a3184 	addi	r5,r5,10438
   43d48:	d9403515 	stw	r5,212(sp)
   43d4c:	048001c4 	movi	r18,7
   43d50:	dcc02c17 	ldw	r19,176(sp)
   43d54:	00000306 	br	43d64 <___vfprintf_internal_r+0xa1c>
   43d58:	843ffc04 	addi	r16,r16,-16
   43d5c:	42000204 	addi	r8,r8,8
   43d60:	8c00130e 	bge	r17,r16,43db0 <___vfprintf_internal_r+0xa68>
   43d64:	01000174 	movhi	r4,5
   43d68:	18c00404 	addi	r3,r3,16
   43d6c:	10800044 	addi	r2,r2,1
   43d70:	210a3184 	addi	r4,r4,10438
   43d74:	41000015 	stw	r4,0(r8)
   43d78:	44400115 	stw	r17,4(r8)
   43d7c:	d8c02015 	stw	r3,128(sp)
   43d80:	d8801f15 	stw	r2,124(sp)
   43d84:	90bff40e 	bge	r18,r2,43d58 <__alt_data_end+0xfffd1d58>
   43d88:	d9801e04 	addi	r6,sp,120
   43d8c:	b80b883a 	mov	r5,r23
   43d90:	9809883a 	mov	r4,r19
   43d94:	0049f940 	call	49f94 <__sprint_r>
   43d98:	103e6d1e 	bne	r2,zero,43750 <__alt_data_end+0xfffd1750>
   43d9c:	843ffc04 	addi	r16,r16,-16
   43da0:	d8c02017 	ldw	r3,128(sp)
   43da4:	d8801f17 	ldw	r2,124(sp)
   43da8:	da000404 	addi	r8,sp,16
   43dac:	8c3fed16 	blt	r17,r16,43d64 <__alt_data_end+0xfffd1d64>
   43db0:	d9403517 	ldw	r5,212(sp)
   43db4:	1c07883a 	add	r3,r3,r16
   43db8:	10800044 	addi	r2,r2,1
   43dbc:	41400015 	stw	r5,0(r8)
   43dc0:	44000115 	stw	r16,4(r8)
   43dc4:	d8c02015 	stw	r3,128(sp)
   43dc8:	d8801f15 	stw	r2,124(sp)
   43dcc:	010001c4 	movi	r4,7
   43dd0:	2080060e 	bge	r4,r2,43dec <___vfprintf_internal_r+0xaa4>
   43dd4:	d9002c17 	ldw	r4,176(sp)
   43dd8:	d9801e04 	addi	r6,sp,120
   43ddc:	b80b883a 	mov	r5,r23
   43de0:	0049f940 	call	49f94 <__sprint_r>
   43de4:	103e5a1e 	bne	r2,zero,43750 <__alt_data_end+0xfffd1750>
   43de8:	d8c02017 	ldw	r3,128(sp)
   43dec:	d8803117 	ldw	r2,196(sp)
   43df0:	d9002a17 	ldw	r4,168(sp)
   43df4:	1100010e 	bge	r2,r4,43dfc <___vfprintf_internal_r+0xab4>
   43df8:	2005883a 	mov	r2,r4
   43dfc:	d9402f17 	ldw	r5,188(sp)
   43e00:	288b883a 	add	r5,r5,r2
   43e04:	d9402f15 	stw	r5,188(sp)
   43e08:	18019e1e 	bne	r3,zero,44484 <___vfprintf_internal_r+0x113c>
   43e0c:	a8800007 	ldb	r2,0(r21)
   43e10:	d8001f15 	stw	zero,124(sp)
   43e14:	da000404 	addi	r8,sp,16
   43e18:	103d851e 	bne	r2,zero,43430 <__alt_data_end+0xfffd1430>
   43e1c:	a821883a 	mov	r16,r21
   43e20:	003d9b06 	br	43490 <__alt_data_end+0xfffd1490>
   43e24:	18c03fcc 	andi	r3,r3,255
   43e28:	1805c11e 	bne	r3,zero,45530 <___vfprintf_internal_r+0x21e8>
   43e2c:	94800414 	ori	r18,r18,16
   43e30:	9080080c 	andi	r2,r18,32
   43e34:	10020c26 	beq	r2,zero,44668 <___vfprintf_internal_r+0x1320>
   43e38:	d8802d17 	ldw	r2,180(sp)
   43e3c:	d9002917 	ldw	r4,164(sp)
   43e40:	d8002785 	stb	zero,158(sp)
   43e44:	10c00204 	addi	r3,r2,8
   43e48:	14c00017 	ldw	r19,0(r2)
   43e4c:	15800117 	ldw	r22,4(r2)
   43e50:	20040f16 	blt	r4,zero,44e90 <___vfprintf_internal_r+0x1b48>
   43e54:	013fdfc4 	movi	r4,-129
   43e58:	9d84b03a 	or	r2,r19,r22
   43e5c:	d8c02d15 	stw	r3,180(sp)
   43e60:	9124703a 	and	r18,r18,r4
   43e64:	0039883a 	mov	fp,zero
   43e68:	103e891e 	bne	r2,zero,43890 <__alt_data_end+0xfffd1890>
   43e6c:	d9002917 	ldw	r4,164(sp)
   43e70:	2002c11e 	bne	r4,zero,44978 <___vfprintf_internal_r+0x1630>
   43e74:	d8002915 	stw	zero,164(sp)
   43e78:	d8002e15 	stw	zero,184(sp)
   43e7c:	dc001e04 	addi	r16,sp,120
   43e80:	003ef806 	br	43a64 <__alt_data_end+0xfffd1a64>
   43e84:	18c03fcc 	andi	r3,r3,255
   43e88:	18059d1e 	bne	r3,zero,45500 <___vfprintf_internal_r+0x21b8>
   43e8c:	01400174 	movhi	r5,5
   43e90:	294a2104 	addi	r5,r5,10372
   43e94:	d9403915 	stw	r5,228(sp)
   43e98:	9080080c 	andi	r2,r18,32
   43e9c:	10005226 	beq	r2,zero,43fe8 <___vfprintf_internal_r+0xca0>
   43ea0:	d8802d17 	ldw	r2,180(sp)
   43ea4:	14c00017 	ldw	r19,0(r2)
   43ea8:	15800117 	ldw	r22,4(r2)
   43eac:	10800204 	addi	r2,r2,8
   43eb0:	d8802d15 	stw	r2,180(sp)
   43eb4:	9080004c 	andi	r2,r18,1
   43eb8:	10019026 	beq	r2,zero,444fc <___vfprintf_internal_r+0x11b4>
   43ebc:	9d84b03a 	or	r2,r19,r22
   43ec0:	10036926 	beq	r2,zero,44c68 <___vfprintf_internal_r+0x1920>
   43ec4:	d8c02917 	ldw	r3,164(sp)
   43ec8:	00800c04 	movi	r2,48
   43ecc:	d8802705 	stb	r2,156(sp)
   43ed0:	dc402745 	stb	r17,157(sp)
   43ed4:	d8002785 	stb	zero,158(sp)
   43ed8:	90800094 	ori	r2,r18,2
   43edc:	18045d16 	blt	r3,zero,45054 <___vfprintf_internal_r+0x1d0c>
   43ee0:	00bfdfc4 	movi	r2,-129
   43ee4:	90a4703a 	and	r18,r18,r2
   43ee8:	94800094 	ori	r18,r18,2
   43eec:	0039883a 	mov	fp,zero
   43ef0:	d9003917 	ldw	r4,228(sp)
   43ef4:	dc001e04 	addi	r16,sp,120
   43ef8:	988003cc 	andi	r2,r19,15
   43efc:	b006973a 	slli	r3,r22,28
   43f00:	2085883a 	add	r2,r4,r2
   43f04:	9826d13a 	srli	r19,r19,4
   43f08:	10800003 	ldbu	r2,0(r2)
   43f0c:	b02cd13a 	srli	r22,r22,4
   43f10:	843fffc4 	addi	r16,r16,-1
   43f14:	1ce6b03a 	or	r19,r3,r19
   43f18:	80800005 	stb	r2,0(r16)
   43f1c:	9d84b03a 	or	r2,r19,r22
   43f20:	103ff51e 	bne	r2,zero,43ef8 <__alt_data_end+0xfffd1ef8>
   43f24:	d8c02817 	ldw	r3,160(sp)
   43f28:	1c07c83a 	sub	r3,r3,r16
   43f2c:	d8c02e15 	stw	r3,184(sp)
   43f30:	003ecc06 	br	43a64 <__alt_data_end+0xfffd1a64>
   43f34:	18c03fcc 	andi	r3,r3,255
   43f38:	183e9f26 	beq	r3,zero,439b8 <__alt_data_end+0xfffd19b8>
   43f3c:	d9c02785 	stb	r7,158(sp)
   43f40:	003e9d06 	br	439b8 <__alt_data_end+0xfffd19b8>
   43f44:	00c00044 	movi	r3,1
   43f48:	01c00ac4 	movi	r7,43
   43f4c:	ac400007 	ldb	r17,0(r21)
   43f50:	003d5e06 	br	434cc <__alt_data_end+0xfffd14cc>
   43f54:	94800814 	ori	r18,r18,32
   43f58:	ac400007 	ldb	r17,0(r21)
   43f5c:	003d5b06 	br	434cc <__alt_data_end+0xfffd14cc>
   43f60:	d8c02d17 	ldw	r3,180(sp)
   43f64:	d8002785 	stb	zero,158(sp)
   43f68:	1c000017 	ldw	r16,0(r3)
   43f6c:	1cc00104 	addi	r19,r3,4
   43f70:	80041926 	beq	r16,zero,44fd8 <___vfprintf_internal_r+0x1c90>
   43f74:	d9002917 	ldw	r4,164(sp)
   43f78:	2003d016 	blt	r4,zero,44ebc <___vfprintf_internal_r+0x1b74>
   43f7c:	200d883a 	mov	r6,r4
   43f80:	000b883a 	mov	r5,zero
   43f84:	8009883a 	mov	r4,r16
   43f88:	da003d15 	stw	r8,244(sp)
   43f8c:	00484000 	call	48400 <memchr>
   43f90:	da003d17 	ldw	r8,244(sp)
   43f94:	10045426 	beq	r2,zero,450e8 <___vfprintf_internal_r+0x1da0>
   43f98:	1405c83a 	sub	r2,r2,r16
   43f9c:	d8802e15 	stw	r2,184(sp)
   43fa0:	1003cc16 	blt	r2,zero,44ed4 <___vfprintf_internal_r+0x1b8c>
   43fa4:	df002783 	ldbu	fp,158(sp)
   43fa8:	d8802a15 	stw	r2,168(sp)
   43fac:	dcc02d15 	stw	r19,180(sp)
   43fb0:	d8002915 	stw	zero,164(sp)
   43fb4:	d8003215 	stw	zero,200(sp)
   43fb8:	003eb006 	br	43a7c <__alt_data_end+0xfffd1a7c>
   43fbc:	18c03fcc 	andi	r3,r3,255
   43fc0:	183f9b26 	beq	r3,zero,43e30 <__alt_data_end+0xfffd1e30>
   43fc4:	d9c02785 	stb	r7,158(sp)
   43fc8:	003f9906 	br	43e30 <__alt_data_end+0xfffd1e30>
   43fcc:	18c03fcc 	andi	r3,r3,255
   43fd0:	1805551e 	bne	r3,zero,45528 <___vfprintf_internal_r+0x21e0>
   43fd4:	01400174 	movhi	r5,5
   43fd8:	294a2604 	addi	r5,r5,10392
   43fdc:	d9403915 	stw	r5,228(sp)
   43fe0:	9080080c 	andi	r2,r18,32
   43fe4:	103fae1e 	bne	r2,zero,43ea0 <__alt_data_end+0xfffd1ea0>
   43fe8:	9080040c 	andi	r2,r18,16
   43fec:	1002de26 	beq	r2,zero,44b68 <___vfprintf_internal_r+0x1820>
   43ff0:	d8c02d17 	ldw	r3,180(sp)
   43ff4:	002d883a 	mov	r22,zero
   43ff8:	1cc00017 	ldw	r19,0(r3)
   43ffc:	18c00104 	addi	r3,r3,4
   44000:	d8c02d15 	stw	r3,180(sp)
   44004:	003fab06 	br	43eb4 <__alt_data_end+0xfffd1eb4>
   44008:	38803fcc 	andi	r2,r7,255
   4400c:	1080201c 	xori	r2,r2,128
   44010:	10bfe004 	addi	r2,r2,-128
   44014:	1002d21e 	bne	r2,zero,44b60 <___vfprintf_internal_r+0x1818>
   44018:	00c00044 	movi	r3,1
   4401c:	01c00804 	movi	r7,32
   44020:	ac400007 	ldb	r17,0(r21)
   44024:	003d2906 	br	434cc <__alt_data_end+0xfffd14cc>
   44028:	94800054 	ori	r18,r18,1
   4402c:	ac400007 	ldb	r17,0(r21)
   44030:	003d2606 	br	434cc <__alt_data_end+0xfffd14cc>
   44034:	18c03fcc 	andi	r3,r3,255
   44038:	183e0526 	beq	r3,zero,43850 <__alt_data_end+0xfffd1850>
   4403c:	d9c02785 	stb	r7,158(sp)
   44040:	003e0306 	br	43850 <__alt_data_end+0xfffd1850>
   44044:	94801014 	ori	r18,r18,64
   44048:	ac400007 	ldb	r17,0(r21)
   4404c:	003d1f06 	br	434cc <__alt_data_end+0xfffd14cc>
   44050:	ac400007 	ldb	r17,0(r21)
   44054:	8a438726 	beq	r17,r9,44e74 <___vfprintf_internal_r+0x1b2c>
   44058:	94800414 	ori	r18,r18,16
   4405c:	003d1b06 	br	434cc <__alt_data_end+0xfffd14cc>
   44060:	18c03fcc 	andi	r3,r3,255
   44064:	1805341e 	bne	r3,zero,45538 <___vfprintf_internal_r+0x21f0>
   44068:	9080080c 	andi	r2,r18,32
   4406c:	1002cd26 	beq	r2,zero,44ba4 <___vfprintf_internal_r+0x185c>
   44070:	d9402d17 	ldw	r5,180(sp)
   44074:	d9002f17 	ldw	r4,188(sp)
   44078:	28800017 	ldw	r2,0(r5)
   4407c:	2007d7fa 	srai	r3,r4,31
   44080:	29400104 	addi	r5,r5,4
   44084:	d9402d15 	stw	r5,180(sp)
   44088:	11000015 	stw	r4,0(r2)
   4408c:	10c00115 	stw	r3,4(r2)
   44090:	003ce506 	br	43428 <__alt_data_end+0xfffd1428>
   44094:	d8c02d17 	ldw	r3,180(sp)
   44098:	d9002d17 	ldw	r4,180(sp)
   4409c:	d8002785 	stb	zero,158(sp)
   440a0:	18800017 	ldw	r2,0(r3)
   440a4:	21000104 	addi	r4,r4,4
   440a8:	00c00044 	movi	r3,1
   440ac:	d8c02a15 	stw	r3,168(sp)
   440b0:	d8801405 	stb	r2,80(sp)
   440b4:	d9002d15 	stw	r4,180(sp)
   440b8:	d8c02e15 	stw	r3,184(sp)
   440bc:	d8002915 	stw	zero,164(sp)
   440c0:	d8003215 	stw	zero,200(sp)
   440c4:	dc001404 	addi	r16,sp,80
   440c8:	0039883a 	mov	fp,zero
   440cc:	003e7206 	br	43a98 <__alt_data_end+0xfffd1a98>
   440d0:	01000174 	movhi	r4,5
   440d4:	210a2604 	addi	r4,r4,10392
   440d8:	0039883a 	mov	fp,zero
   440dc:	d9003915 	stw	r4,228(sp)
   440e0:	04401e04 	movi	r17,120
   440e4:	003f8206 	br	43ef0 <__alt_data_end+0xfffd1ef0>
   440e8:	18c03fcc 	andi	r3,r3,255
   440ec:	1805061e 	bne	r3,zero,45508 <___vfprintf_internal_r+0x21c0>
   440f0:	883d9126 	beq	r17,zero,43738 <__alt_data_end+0xfffd1738>
   440f4:	00c00044 	movi	r3,1
   440f8:	d8c02a15 	stw	r3,168(sp)
   440fc:	dc401405 	stb	r17,80(sp)
   44100:	d8002785 	stb	zero,158(sp)
   44104:	003fec06 	br	440b8 <__alt_data_end+0xfffd20b8>
   44108:	01400174 	movhi	r5,5
   4410c:	294a2604 	addi	r5,r5,10392
   44110:	d9403915 	stw	r5,228(sp)
   44114:	d8c02d15 	stw	r3,180(sp)
   44118:	1025883a 	mov	r18,r2
   4411c:	04401e04 	movi	r17,120
   44120:	9d84b03a 	or	r2,r19,r22
   44124:	1000fc1e 	bne	r2,zero,44518 <___vfprintf_internal_r+0x11d0>
   44128:	0039883a 	mov	fp,zero
   4412c:	00800084 	movi	r2,2
   44130:	10803fcc 	andi	r2,r2,255
   44134:	00c00044 	movi	r3,1
   44138:	10c20f26 	beq	r2,r3,44978 <___vfprintf_internal_r+0x1630>
   4413c:	00c00084 	movi	r3,2
   44140:	10fd6326 	beq	r2,r3,436d0 <__alt_data_end+0xfffd16d0>
   44144:	003e2d06 	br	439fc <__alt_data_end+0xfffd19fc>
   44148:	d8c02017 	ldw	r3,128(sp)
   4414c:	003e9306 	br	43b9c <__alt_data_end+0xfffd1b9c>
   44150:	00801944 	movi	r2,101
   44154:	14407e0e 	bge	r2,r17,44350 <___vfprintf_internal_r+0x1008>
   44158:	d9003617 	ldw	r4,216(sp)
   4415c:	d9403817 	ldw	r5,224(sp)
   44160:	000d883a 	mov	r6,zero
   44164:	000f883a 	mov	r7,zero
   44168:	d8c03c15 	stw	r3,240(sp)
   4416c:	da003d15 	stw	r8,244(sp)
   44170:	004d8940 	call	4d894 <__eqdf2>
   44174:	d8c03c17 	ldw	r3,240(sp)
   44178:	da003d17 	ldw	r8,244(sp)
   4417c:	1000f71e 	bne	r2,zero,4455c <___vfprintf_internal_r+0x1214>
   44180:	d8801f17 	ldw	r2,124(sp)
   44184:	01000174 	movhi	r4,5
   44188:	210a2d04 	addi	r4,r4,10420
   4418c:	18c00044 	addi	r3,r3,1
   44190:	10800044 	addi	r2,r2,1
   44194:	41000015 	stw	r4,0(r8)
   44198:	01000044 	movi	r4,1
   4419c:	41000115 	stw	r4,4(r8)
   441a0:	d8c02015 	stw	r3,128(sp)
   441a4:	d8801f15 	stw	r2,124(sp)
   441a8:	010001c4 	movi	r4,7
   441ac:	2082b816 	blt	r4,r2,44c90 <___vfprintf_internal_r+0x1948>
   441b0:	42000204 	addi	r8,r8,8
   441b4:	d8802617 	ldw	r2,152(sp)
   441b8:	d9403317 	ldw	r5,204(sp)
   441bc:	11400216 	blt	r2,r5,441c8 <___vfprintf_internal_r+0xe80>
   441c0:	9080004c 	andi	r2,r18,1
   441c4:	103ed526 	beq	r2,zero,43d1c <__alt_data_end+0xfffd1d1c>
   441c8:	d8803717 	ldw	r2,220(sp)
   441cc:	d9003417 	ldw	r4,208(sp)
   441d0:	d9403717 	ldw	r5,220(sp)
   441d4:	1887883a 	add	r3,r3,r2
   441d8:	d8801f17 	ldw	r2,124(sp)
   441dc:	41000015 	stw	r4,0(r8)
   441e0:	41400115 	stw	r5,4(r8)
   441e4:	10800044 	addi	r2,r2,1
   441e8:	d8c02015 	stw	r3,128(sp)
   441ec:	d8801f15 	stw	r2,124(sp)
   441f0:	010001c4 	movi	r4,7
   441f4:	20832916 	blt	r4,r2,44e9c <___vfprintf_internal_r+0x1b54>
   441f8:	42000204 	addi	r8,r8,8
   441fc:	d8803317 	ldw	r2,204(sp)
   44200:	143fffc4 	addi	r16,r2,-1
   44204:	043ec50e 	bge	zero,r16,43d1c <__alt_data_end+0xfffd1d1c>
   44208:	04400404 	movi	r17,16
   4420c:	d8801f17 	ldw	r2,124(sp)
   44210:	8c00880e 	bge	r17,r16,44434 <___vfprintf_internal_r+0x10ec>
   44214:	01400174 	movhi	r5,5
   44218:	294a2d84 	addi	r5,r5,10422
   4421c:	d9402b15 	stw	r5,172(sp)
   44220:	058001c4 	movi	r22,7
   44224:	dcc02c17 	ldw	r19,176(sp)
   44228:	00000306 	br	44238 <___vfprintf_internal_r+0xef0>
   4422c:	42000204 	addi	r8,r8,8
   44230:	843ffc04 	addi	r16,r16,-16
   44234:	8c00820e 	bge	r17,r16,44440 <___vfprintf_internal_r+0x10f8>
   44238:	18c00404 	addi	r3,r3,16
   4423c:	10800044 	addi	r2,r2,1
   44240:	45000015 	stw	r20,0(r8)
   44244:	44400115 	stw	r17,4(r8)
   44248:	d8c02015 	stw	r3,128(sp)
   4424c:	d8801f15 	stw	r2,124(sp)
   44250:	b0bff60e 	bge	r22,r2,4422c <__alt_data_end+0xfffd222c>
   44254:	d9801e04 	addi	r6,sp,120
   44258:	b80b883a 	mov	r5,r23
   4425c:	9809883a 	mov	r4,r19
   44260:	0049f940 	call	49f94 <__sprint_r>
   44264:	103d3a1e 	bne	r2,zero,43750 <__alt_data_end+0xfffd1750>
   44268:	d8c02017 	ldw	r3,128(sp)
   4426c:	d8801f17 	ldw	r2,124(sp)
   44270:	da000404 	addi	r8,sp,16
   44274:	003fee06 	br	44230 <__alt_data_end+0xfffd2230>
   44278:	d9403117 	ldw	r5,196(sp)
   4427c:	d8802a17 	ldw	r2,168(sp)
   44280:	28adc83a 	sub	r22,r5,r2
   44284:	05be630e 	bge	zero,r22,43c14 <__alt_data_end+0xfffd1c14>
   44288:	07000404 	movi	fp,16
   4428c:	d8801f17 	ldw	r2,124(sp)
   44290:	e5838f0e 	bge	fp,r22,450d0 <___vfprintf_internal_r+0x1d88>
   44294:	01400174 	movhi	r5,5
   44298:	294a2d84 	addi	r5,r5,10422
   4429c:	dc403015 	stw	r17,192(sp)
   442a0:	d9402b15 	stw	r5,172(sp)
   442a4:	b023883a 	mov	r17,r22
   442a8:	04c001c4 	movi	r19,7
   442ac:	a82d883a 	mov	r22,r21
   442b0:	902b883a 	mov	r21,r18
   442b4:	8025883a 	mov	r18,r16
   442b8:	dc002c17 	ldw	r16,176(sp)
   442bc:	00000306 	br	442cc <___vfprintf_internal_r+0xf84>
   442c0:	8c7ffc04 	addi	r17,r17,-16
   442c4:	42000204 	addi	r8,r8,8
   442c8:	e440110e 	bge	fp,r17,44310 <___vfprintf_internal_r+0xfc8>
   442cc:	18c00404 	addi	r3,r3,16
   442d0:	10800044 	addi	r2,r2,1
   442d4:	45000015 	stw	r20,0(r8)
   442d8:	47000115 	stw	fp,4(r8)
   442dc:	d8c02015 	stw	r3,128(sp)
   442e0:	d8801f15 	stw	r2,124(sp)
   442e4:	98bff60e 	bge	r19,r2,442c0 <__alt_data_end+0xfffd22c0>
   442e8:	d9801e04 	addi	r6,sp,120
   442ec:	b80b883a 	mov	r5,r23
   442f0:	8009883a 	mov	r4,r16
   442f4:	0049f940 	call	49f94 <__sprint_r>
   442f8:	103d151e 	bne	r2,zero,43750 <__alt_data_end+0xfffd1750>
   442fc:	8c7ffc04 	addi	r17,r17,-16
   44300:	d8c02017 	ldw	r3,128(sp)
   44304:	d8801f17 	ldw	r2,124(sp)
   44308:	da000404 	addi	r8,sp,16
   4430c:	e47fef16 	blt	fp,r17,442cc <__alt_data_end+0xfffd22cc>
   44310:	9021883a 	mov	r16,r18
   44314:	a825883a 	mov	r18,r21
   44318:	b02b883a 	mov	r21,r22
   4431c:	882d883a 	mov	r22,r17
   44320:	dc403017 	ldw	r17,192(sp)
   44324:	d9002b17 	ldw	r4,172(sp)
   44328:	1d87883a 	add	r3,r3,r22
   4432c:	10800044 	addi	r2,r2,1
   44330:	41000015 	stw	r4,0(r8)
   44334:	45800115 	stw	r22,4(r8)
   44338:	d8c02015 	stw	r3,128(sp)
   4433c:	d8801f15 	stw	r2,124(sp)
   44340:	010001c4 	movi	r4,7
   44344:	20818e16 	blt	r4,r2,44980 <___vfprintf_internal_r+0x1638>
   44348:	42000204 	addi	r8,r8,8
   4434c:	003e3106 	br	43c14 <__alt_data_end+0xfffd1c14>
   44350:	d9403317 	ldw	r5,204(sp)
   44354:	00800044 	movi	r2,1
   44358:	18c00044 	addi	r3,r3,1
   4435c:	1141530e 	bge	r2,r5,448ac <___vfprintf_internal_r+0x1564>
   44360:	dc401f17 	ldw	r17,124(sp)
   44364:	00800044 	movi	r2,1
   44368:	40800115 	stw	r2,4(r8)
   4436c:	8c400044 	addi	r17,r17,1
   44370:	44000015 	stw	r16,0(r8)
   44374:	d8c02015 	stw	r3,128(sp)
   44378:	dc401f15 	stw	r17,124(sp)
   4437c:	008001c4 	movi	r2,7
   44380:	14416b16 	blt	r2,r17,44930 <___vfprintf_internal_r+0x15e8>
   44384:	42000204 	addi	r8,r8,8
   44388:	d8803717 	ldw	r2,220(sp)
   4438c:	d9003417 	ldw	r4,208(sp)
   44390:	8c400044 	addi	r17,r17,1
   44394:	10c7883a 	add	r3,r2,r3
   44398:	40800115 	stw	r2,4(r8)
   4439c:	41000015 	stw	r4,0(r8)
   443a0:	d8c02015 	stw	r3,128(sp)
   443a4:	dc401f15 	stw	r17,124(sp)
   443a8:	008001c4 	movi	r2,7
   443ac:	14416916 	blt	r2,r17,44954 <___vfprintf_internal_r+0x160c>
   443b0:	45800204 	addi	r22,r8,8
   443b4:	d9003617 	ldw	r4,216(sp)
   443b8:	d9403817 	ldw	r5,224(sp)
   443bc:	000d883a 	mov	r6,zero
   443c0:	000f883a 	mov	r7,zero
   443c4:	d8c03c15 	stw	r3,240(sp)
   443c8:	004d8940 	call	4d894 <__eqdf2>
   443cc:	d8c03c17 	ldw	r3,240(sp)
   443d0:	1000bc26 	beq	r2,zero,446c4 <___vfprintf_internal_r+0x137c>
   443d4:	d9403317 	ldw	r5,204(sp)
   443d8:	84000044 	addi	r16,r16,1
   443dc:	8c400044 	addi	r17,r17,1
   443e0:	28bfffc4 	addi	r2,r5,-1
   443e4:	1887883a 	add	r3,r3,r2
   443e8:	b0800115 	stw	r2,4(r22)
   443ec:	b4000015 	stw	r16,0(r22)
   443f0:	d8c02015 	stw	r3,128(sp)
   443f4:	dc401f15 	stw	r17,124(sp)
   443f8:	008001c4 	movi	r2,7
   443fc:	14414316 	blt	r2,r17,4490c <___vfprintf_internal_r+0x15c4>
   44400:	b5800204 	addi	r22,r22,8
   44404:	d9003a17 	ldw	r4,232(sp)
   44408:	df0022c4 	addi	fp,sp,139
   4440c:	8c400044 	addi	r17,r17,1
   44410:	20c7883a 	add	r3,r4,r3
   44414:	b7000015 	stw	fp,0(r22)
   44418:	b1000115 	stw	r4,4(r22)
   4441c:	d8c02015 	stw	r3,128(sp)
   44420:	dc401f15 	stw	r17,124(sp)
   44424:	008001c4 	movi	r2,7
   44428:	14400e16 	blt	r2,r17,44464 <___vfprintf_internal_r+0x111c>
   4442c:	b2000204 	addi	r8,r22,8
   44430:	003e3a06 	br	43d1c <__alt_data_end+0xfffd1d1c>
   44434:	01000174 	movhi	r4,5
   44438:	210a2d84 	addi	r4,r4,10422
   4443c:	d9002b15 	stw	r4,172(sp)
   44440:	d9002b17 	ldw	r4,172(sp)
   44444:	1c07883a 	add	r3,r3,r16
   44448:	44000115 	stw	r16,4(r8)
   4444c:	41000015 	stw	r4,0(r8)
   44450:	10800044 	addi	r2,r2,1
   44454:	d8c02015 	stw	r3,128(sp)
   44458:	d8801f15 	stw	r2,124(sp)
   4445c:	010001c4 	movi	r4,7
   44460:	20be2d0e 	bge	r4,r2,43d18 <__alt_data_end+0xfffd1d18>
   44464:	d9002c17 	ldw	r4,176(sp)
   44468:	d9801e04 	addi	r6,sp,120
   4446c:	b80b883a 	mov	r5,r23
   44470:	0049f940 	call	49f94 <__sprint_r>
   44474:	103cb61e 	bne	r2,zero,43750 <__alt_data_end+0xfffd1750>
   44478:	d8c02017 	ldw	r3,128(sp)
   4447c:	da000404 	addi	r8,sp,16
   44480:	003e2606 	br	43d1c <__alt_data_end+0xfffd1d1c>
   44484:	d9002c17 	ldw	r4,176(sp)
   44488:	d9801e04 	addi	r6,sp,120
   4448c:	b80b883a 	mov	r5,r23
   44490:	0049f940 	call	49f94 <__sprint_r>
   44494:	103e5d26 	beq	r2,zero,43e0c <__alt_data_end+0xfffd1e0c>
   44498:	003cad06 	br	43750 <__alt_data_end+0xfffd1750>
   4449c:	d9002c17 	ldw	r4,176(sp)
   444a0:	d9801e04 	addi	r6,sp,120
   444a4:	b80b883a 	mov	r5,r23
   444a8:	0049f940 	call	49f94 <__sprint_r>
   444ac:	103ca81e 	bne	r2,zero,43750 <__alt_data_end+0xfffd1750>
   444b0:	d8c02017 	ldw	r3,128(sp)
   444b4:	da000404 	addi	r8,sp,16
   444b8:	003e0b06 	br	43ce8 <__alt_data_end+0xfffd1ce8>
   444bc:	d9002c17 	ldw	r4,176(sp)
   444c0:	d9801e04 	addi	r6,sp,120
   444c4:	b80b883a 	mov	r5,r23
   444c8:	0049f940 	call	49f94 <__sprint_r>
   444cc:	103ca01e 	bne	r2,zero,43750 <__alt_data_end+0xfffd1750>
   444d0:	d8c02017 	ldw	r3,128(sp)
   444d4:	da000404 	addi	r8,sp,16
   444d8:	003dbd06 	br	43bd0 <__alt_data_end+0xfffd1bd0>
   444dc:	d9002c17 	ldw	r4,176(sp)
   444e0:	d9801e04 	addi	r6,sp,120
   444e4:	b80b883a 	mov	r5,r23
   444e8:	0049f940 	call	49f94 <__sprint_r>
   444ec:	103c981e 	bne	r2,zero,43750 <__alt_data_end+0xfffd1750>
   444f0:	d8c02017 	ldw	r3,128(sp)
   444f4:	da000404 	addi	r8,sp,16
   444f8:	003dc306 	br	43c08 <__alt_data_end+0xfffd1c08>
   444fc:	d8802917 	ldw	r2,164(sp)
   44500:	d8002785 	stb	zero,158(sp)
   44504:	103f0616 	blt	r2,zero,44120 <__alt_data_end+0xfffd2120>
   44508:	00ffdfc4 	movi	r3,-129
   4450c:	9d84b03a 	or	r2,r19,r22
   44510:	90e4703a 	and	r18,r18,r3
   44514:	103c6b26 	beq	r2,zero,436c4 <__alt_data_end+0xfffd16c4>
   44518:	0039883a 	mov	fp,zero
   4451c:	003e7406 	br	43ef0 <__alt_data_end+0xfffd1ef0>
   44520:	9080040c 	andi	r2,r18,16
   44524:	1001b326 	beq	r2,zero,44bf4 <___vfprintf_internal_r+0x18ac>
   44528:	d9002d17 	ldw	r4,180(sp)
   4452c:	d9402917 	ldw	r5,164(sp)
   44530:	d8002785 	stb	zero,158(sp)
   44534:	20800104 	addi	r2,r4,4
   44538:	24c00017 	ldw	r19,0(r4)
   4453c:	002d883a 	mov	r22,zero
   44540:	2801b516 	blt	r5,zero,44c18 <___vfprintf_internal_r+0x18d0>
   44544:	00ffdfc4 	movi	r3,-129
   44548:	d8802d15 	stw	r2,180(sp)
   4454c:	90e4703a 	and	r18,r18,r3
   44550:	983d2726 	beq	r19,zero,439f0 <__alt_data_end+0xfffd19f0>
   44554:	0039883a 	mov	fp,zero
   44558:	003d2a06 	br	43a04 <__alt_data_end+0xfffd1a04>
   4455c:	dc402617 	ldw	r17,152(sp)
   44560:	0441d30e 	bge	zero,r17,44cb0 <___vfprintf_internal_r+0x1968>
   44564:	dc403217 	ldw	r17,200(sp)
   44568:	d8803317 	ldw	r2,204(sp)
   4456c:	1440010e 	bge	r2,r17,44574 <___vfprintf_internal_r+0x122c>
   44570:	1023883a 	mov	r17,r2
   44574:	04400a0e 	bge	zero,r17,445a0 <___vfprintf_internal_r+0x1258>
   44578:	d8801f17 	ldw	r2,124(sp)
   4457c:	1c47883a 	add	r3,r3,r17
   44580:	44000015 	stw	r16,0(r8)
   44584:	10800044 	addi	r2,r2,1
   44588:	44400115 	stw	r17,4(r8)
   4458c:	d8c02015 	stw	r3,128(sp)
   44590:	d8801f15 	stw	r2,124(sp)
   44594:	010001c4 	movi	r4,7
   44598:	20826516 	blt	r4,r2,44f30 <___vfprintf_internal_r+0x1be8>
   4459c:	42000204 	addi	r8,r8,8
   445a0:	88026116 	blt	r17,zero,44f28 <___vfprintf_internal_r+0x1be0>
   445a4:	d9003217 	ldw	r4,200(sp)
   445a8:	2463c83a 	sub	r17,r4,r17
   445ac:	04407b0e 	bge	zero,r17,4479c <___vfprintf_internal_r+0x1454>
   445b0:	05800404 	movi	r22,16
   445b4:	d8801f17 	ldw	r2,124(sp)
   445b8:	b4419d0e 	bge	r22,r17,44c30 <___vfprintf_internal_r+0x18e8>
   445bc:	01000174 	movhi	r4,5
   445c0:	210a2d84 	addi	r4,r4,10422
   445c4:	d9002b15 	stw	r4,172(sp)
   445c8:	070001c4 	movi	fp,7
   445cc:	dcc02c17 	ldw	r19,176(sp)
   445d0:	00000306 	br	445e0 <___vfprintf_internal_r+0x1298>
   445d4:	42000204 	addi	r8,r8,8
   445d8:	8c7ffc04 	addi	r17,r17,-16
   445dc:	b441970e 	bge	r22,r17,44c3c <___vfprintf_internal_r+0x18f4>
   445e0:	18c00404 	addi	r3,r3,16
   445e4:	10800044 	addi	r2,r2,1
   445e8:	45000015 	stw	r20,0(r8)
   445ec:	45800115 	stw	r22,4(r8)
   445f0:	d8c02015 	stw	r3,128(sp)
   445f4:	d8801f15 	stw	r2,124(sp)
   445f8:	e0bff60e 	bge	fp,r2,445d4 <__alt_data_end+0xfffd25d4>
   445fc:	d9801e04 	addi	r6,sp,120
   44600:	b80b883a 	mov	r5,r23
   44604:	9809883a 	mov	r4,r19
   44608:	0049f940 	call	49f94 <__sprint_r>
   4460c:	103c501e 	bne	r2,zero,43750 <__alt_data_end+0xfffd1750>
   44610:	d8c02017 	ldw	r3,128(sp)
   44614:	d8801f17 	ldw	r2,124(sp)
   44618:	da000404 	addi	r8,sp,16
   4461c:	003fee06 	br	445d8 <__alt_data_end+0xfffd25d8>
   44620:	d9002c17 	ldw	r4,176(sp)
   44624:	d9801e04 	addi	r6,sp,120
   44628:	b80b883a 	mov	r5,r23
   4462c:	0049f940 	call	49f94 <__sprint_r>
   44630:	103c471e 	bne	r2,zero,43750 <__alt_data_end+0xfffd1750>
   44634:	d8c02017 	ldw	r3,128(sp)
   44638:	df002787 	ldb	fp,158(sp)
   4463c:	da000404 	addi	r8,sp,16
   44640:	003d5606 	br	43b9c <__alt_data_end+0xfffd1b9c>
   44644:	9080040c 	andi	r2,r18,16
   44648:	10016126 	beq	r2,zero,44bd0 <___vfprintf_internal_r+0x1888>
   4464c:	d8802d17 	ldw	r2,180(sp)
   44650:	14c00017 	ldw	r19,0(r2)
   44654:	10800104 	addi	r2,r2,4
   44658:	d8802d15 	stw	r2,180(sp)
   4465c:	982dd7fa 	srai	r22,r19,31
   44660:	b005883a 	mov	r2,r22
   44664:	003c8206 	br	43870 <__alt_data_end+0xfffd1870>
   44668:	9080040c 	andi	r2,r18,16
   4466c:	10003526 	beq	r2,zero,44744 <___vfprintf_internal_r+0x13fc>
   44670:	d9402d17 	ldw	r5,180(sp)
   44674:	d8c02917 	ldw	r3,164(sp)
   44678:	d8002785 	stb	zero,158(sp)
   4467c:	28800104 	addi	r2,r5,4
   44680:	2cc00017 	ldw	r19,0(r5)
   44684:	002d883a 	mov	r22,zero
   44688:	18003716 	blt	r3,zero,44768 <___vfprintf_internal_r+0x1420>
   4468c:	00ffdfc4 	movi	r3,-129
   44690:	d8802d15 	stw	r2,180(sp)
   44694:	90e4703a 	and	r18,r18,r3
   44698:	0039883a 	mov	fp,zero
   4469c:	983df326 	beq	r19,zero,43e6c <__alt_data_end+0xfffd1e6c>
   446a0:	00800244 	movi	r2,9
   446a4:	14fc7b36 	bltu	r2,r19,43894 <__alt_data_end+0xfffd1894>
   446a8:	d8c02817 	ldw	r3,160(sp)
   446ac:	dc001dc4 	addi	r16,sp,119
   446b0:	9cc00c04 	addi	r19,r19,48
   446b4:	1c07c83a 	sub	r3,r3,r16
   446b8:	dcc01dc5 	stb	r19,119(sp)
   446bc:	d8c02e15 	stw	r3,184(sp)
   446c0:	003ce806 	br	43a64 <__alt_data_end+0xfffd1a64>
   446c4:	d8803317 	ldw	r2,204(sp)
   446c8:	143fffc4 	addi	r16,r2,-1
   446cc:	043f4d0e 	bge	zero,r16,44404 <__alt_data_end+0xfffd2404>
   446d0:	07000404 	movi	fp,16
   446d4:	e400810e 	bge	fp,r16,448dc <___vfprintf_internal_r+0x1594>
   446d8:	01400174 	movhi	r5,5
   446dc:	294a2d84 	addi	r5,r5,10422
   446e0:	d9402b15 	stw	r5,172(sp)
   446e4:	01c001c4 	movi	r7,7
   446e8:	dcc02c17 	ldw	r19,176(sp)
   446ec:	00000306 	br	446fc <___vfprintf_internal_r+0x13b4>
   446f0:	b5800204 	addi	r22,r22,8
   446f4:	843ffc04 	addi	r16,r16,-16
   446f8:	e4007b0e 	bge	fp,r16,448e8 <___vfprintf_internal_r+0x15a0>
   446fc:	18c00404 	addi	r3,r3,16
   44700:	8c400044 	addi	r17,r17,1
   44704:	b5000015 	stw	r20,0(r22)
   44708:	b7000115 	stw	fp,4(r22)
   4470c:	d8c02015 	stw	r3,128(sp)
   44710:	dc401f15 	stw	r17,124(sp)
   44714:	3c7ff60e 	bge	r7,r17,446f0 <__alt_data_end+0xfffd26f0>
   44718:	d9801e04 	addi	r6,sp,120
   4471c:	b80b883a 	mov	r5,r23
   44720:	9809883a 	mov	r4,r19
   44724:	d9c03c15 	stw	r7,240(sp)
   44728:	0049f940 	call	49f94 <__sprint_r>
   4472c:	d9c03c17 	ldw	r7,240(sp)
   44730:	103c071e 	bne	r2,zero,43750 <__alt_data_end+0xfffd1750>
   44734:	d8c02017 	ldw	r3,128(sp)
   44738:	dc401f17 	ldw	r17,124(sp)
   4473c:	dd800404 	addi	r22,sp,16
   44740:	003fec06 	br	446f4 <__alt_data_end+0xfffd26f4>
   44744:	9080100c 	andi	r2,r18,64
   44748:	d8002785 	stb	zero,158(sp)
   4474c:	10010e26 	beq	r2,zero,44b88 <___vfprintf_internal_r+0x1840>
   44750:	d9002d17 	ldw	r4,180(sp)
   44754:	d9402917 	ldw	r5,164(sp)
   44758:	002d883a 	mov	r22,zero
   4475c:	20800104 	addi	r2,r4,4
   44760:	24c0000b 	ldhu	r19,0(r4)
   44764:	283fc90e 	bge	r5,zero,4468c <__alt_data_end+0xfffd268c>
   44768:	d8802d15 	stw	r2,180(sp)
   4476c:	0039883a 	mov	fp,zero
   44770:	9d84b03a 	or	r2,r19,r22
   44774:	103c461e 	bne	r2,zero,43890 <__alt_data_end+0xfffd1890>
   44778:	00800044 	movi	r2,1
   4477c:	003e6c06 	br	44130 <__alt_data_end+0xfffd2130>
   44780:	d9002c17 	ldw	r4,176(sp)
   44784:	d9801e04 	addi	r6,sp,120
   44788:	b80b883a 	mov	r5,r23
   4478c:	0049f940 	call	49f94 <__sprint_r>
   44790:	103bef1e 	bne	r2,zero,43750 <__alt_data_end+0xfffd1750>
   44794:	d8c02017 	ldw	r3,128(sp)
   44798:	da000404 	addi	r8,sp,16
   4479c:	d9003217 	ldw	r4,200(sp)
   447a0:	d8802617 	ldw	r2,152(sp)
   447a4:	d9403317 	ldw	r5,204(sp)
   447a8:	8123883a 	add	r17,r16,r4
   447ac:	11400216 	blt	r2,r5,447b8 <___vfprintf_internal_r+0x1470>
   447b0:	9100004c 	andi	r4,r18,1
   447b4:	20000d26 	beq	r4,zero,447ec <___vfprintf_internal_r+0x14a4>
   447b8:	d9003717 	ldw	r4,220(sp)
   447bc:	d9403417 	ldw	r5,208(sp)
   447c0:	1907883a 	add	r3,r3,r4
   447c4:	d9001f17 	ldw	r4,124(sp)
   447c8:	41400015 	stw	r5,0(r8)
   447cc:	d9403717 	ldw	r5,220(sp)
   447d0:	21000044 	addi	r4,r4,1
   447d4:	d8c02015 	stw	r3,128(sp)
   447d8:	41400115 	stw	r5,4(r8)
   447dc:	d9001f15 	stw	r4,124(sp)
   447e0:	014001c4 	movi	r5,7
   447e4:	2901e816 	blt	r5,r4,44f88 <___vfprintf_internal_r+0x1c40>
   447e8:	42000204 	addi	r8,r8,8
   447ec:	d9003317 	ldw	r4,204(sp)
   447f0:	8121883a 	add	r16,r16,r4
   447f4:	2085c83a 	sub	r2,r4,r2
   447f8:	8461c83a 	sub	r16,r16,r17
   447fc:	1400010e 	bge	r2,r16,44804 <___vfprintf_internal_r+0x14bc>
   44800:	1021883a 	mov	r16,r2
   44804:	04000a0e 	bge	zero,r16,44830 <___vfprintf_internal_r+0x14e8>
   44808:	d9001f17 	ldw	r4,124(sp)
   4480c:	1c07883a 	add	r3,r3,r16
   44810:	44400015 	stw	r17,0(r8)
   44814:	21000044 	addi	r4,r4,1
   44818:	44000115 	stw	r16,4(r8)
   4481c:	d8c02015 	stw	r3,128(sp)
   44820:	d9001f15 	stw	r4,124(sp)
   44824:	014001c4 	movi	r5,7
   44828:	2901fb16 	blt	r5,r4,45018 <___vfprintf_internal_r+0x1cd0>
   4482c:	42000204 	addi	r8,r8,8
   44830:	8001f716 	blt	r16,zero,45010 <___vfprintf_internal_r+0x1cc8>
   44834:	1421c83a 	sub	r16,r2,r16
   44838:	043d380e 	bge	zero,r16,43d1c <__alt_data_end+0xfffd1d1c>
   4483c:	04400404 	movi	r17,16
   44840:	d8801f17 	ldw	r2,124(sp)
   44844:	8c3efb0e 	bge	r17,r16,44434 <__alt_data_end+0xfffd2434>
   44848:	01400174 	movhi	r5,5
   4484c:	294a2d84 	addi	r5,r5,10422
   44850:	d9402b15 	stw	r5,172(sp)
   44854:	058001c4 	movi	r22,7
   44858:	dcc02c17 	ldw	r19,176(sp)
   4485c:	00000306 	br	4486c <___vfprintf_internal_r+0x1524>
   44860:	42000204 	addi	r8,r8,8
   44864:	843ffc04 	addi	r16,r16,-16
   44868:	8c3ef50e 	bge	r17,r16,44440 <__alt_data_end+0xfffd2440>
   4486c:	18c00404 	addi	r3,r3,16
   44870:	10800044 	addi	r2,r2,1
   44874:	45000015 	stw	r20,0(r8)
   44878:	44400115 	stw	r17,4(r8)
   4487c:	d8c02015 	stw	r3,128(sp)
   44880:	d8801f15 	stw	r2,124(sp)
   44884:	b0bff60e 	bge	r22,r2,44860 <__alt_data_end+0xfffd2860>
   44888:	d9801e04 	addi	r6,sp,120
   4488c:	b80b883a 	mov	r5,r23
   44890:	9809883a 	mov	r4,r19
   44894:	0049f940 	call	49f94 <__sprint_r>
   44898:	103bad1e 	bne	r2,zero,43750 <__alt_data_end+0xfffd1750>
   4489c:	d8c02017 	ldw	r3,128(sp)
   448a0:	d8801f17 	ldw	r2,124(sp)
   448a4:	da000404 	addi	r8,sp,16
   448a8:	003fee06 	br	44864 <__alt_data_end+0xfffd2864>
   448ac:	9088703a 	and	r4,r18,r2
   448b0:	203eab1e 	bne	r4,zero,44360 <__alt_data_end+0xfffd2360>
   448b4:	dc401f17 	ldw	r17,124(sp)
   448b8:	40800115 	stw	r2,4(r8)
   448bc:	44000015 	stw	r16,0(r8)
   448c0:	8c400044 	addi	r17,r17,1
   448c4:	d8c02015 	stw	r3,128(sp)
   448c8:	dc401f15 	stw	r17,124(sp)
   448cc:	008001c4 	movi	r2,7
   448d0:	14400e16 	blt	r2,r17,4490c <___vfprintf_internal_r+0x15c4>
   448d4:	45800204 	addi	r22,r8,8
   448d8:	003eca06 	br	44404 <__alt_data_end+0xfffd2404>
   448dc:	01000174 	movhi	r4,5
   448e0:	210a2d84 	addi	r4,r4,10422
   448e4:	d9002b15 	stw	r4,172(sp)
   448e8:	d8802b17 	ldw	r2,172(sp)
   448ec:	1c07883a 	add	r3,r3,r16
   448f0:	8c400044 	addi	r17,r17,1
   448f4:	b0800015 	stw	r2,0(r22)
   448f8:	b4000115 	stw	r16,4(r22)
   448fc:	d8c02015 	stw	r3,128(sp)
   44900:	dc401f15 	stw	r17,124(sp)
   44904:	008001c4 	movi	r2,7
   44908:	147ebd0e 	bge	r2,r17,44400 <__alt_data_end+0xfffd2400>
   4490c:	d9002c17 	ldw	r4,176(sp)
   44910:	d9801e04 	addi	r6,sp,120
   44914:	b80b883a 	mov	r5,r23
   44918:	0049f940 	call	49f94 <__sprint_r>
   4491c:	103b8c1e 	bne	r2,zero,43750 <__alt_data_end+0xfffd1750>
   44920:	d8c02017 	ldw	r3,128(sp)
   44924:	dc401f17 	ldw	r17,124(sp)
   44928:	dd800404 	addi	r22,sp,16
   4492c:	003eb506 	br	44404 <__alt_data_end+0xfffd2404>
   44930:	d9002c17 	ldw	r4,176(sp)
   44934:	d9801e04 	addi	r6,sp,120
   44938:	b80b883a 	mov	r5,r23
   4493c:	0049f940 	call	49f94 <__sprint_r>
   44940:	103b831e 	bne	r2,zero,43750 <__alt_data_end+0xfffd1750>
   44944:	d8c02017 	ldw	r3,128(sp)
   44948:	dc401f17 	ldw	r17,124(sp)
   4494c:	da000404 	addi	r8,sp,16
   44950:	003e8d06 	br	44388 <__alt_data_end+0xfffd2388>
   44954:	d9002c17 	ldw	r4,176(sp)
   44958:	d9801e04 	addi	r6,sp,120
   4495c:	b80b883a 	mov	r5,r23
   44960:	0049f940 	call	49f94 <__sprint_r>
   44964:	103b7a1e 	bne	r2,zero,43750 <__alt_data_end+0xfffd1750>
   44968:	d8c02017 	ldw	r3,128(sp)
   4496c:	dc401f17 	ldw	r17,124(sp)
   44970:	dd800404 	addi	r22,sp,16
   44974:	003e8f06 	br	443b4 <__alt_data_end+0xfffd23b4>
   44978:	0027883a 	mov	r19,zero
   4497c:	003f4a06 	br	446a8 <__alt_data_end+0xfffd26a8>
   44980:	d9002c17 	ldw	r4,176(sp)
   44984:	d9801e04 	addi	r6,sp,120
   44988:	b80b883a 	mov	r5,r23
   4498c:	0049f940 	call	49f94 <__sprint_r>
   44990:	103b6f1e 	bne	r2,zero,43750 <__alt_data_end+0xfffd1750>
   44994:	d8c02017 	ldw	r3,128(sp)
   44998:	da000404 	addi	r8,sp,16
   4499c:	003c9d06 	br	43c14 <__alt_data_end+0xfffd1c14>
   449a0:	04e7c83a 	sub	r19,zero,r19
   449a4:	9804c03a 	cmpne	r2,r19,zero
   449a8:	05adc83a 	sub	r22,zero,r22
   449ac:	b0adc83a 	sub	r22,r22,r2
   449b0:	d8802917 	ldw	r2,164(sp)
   449b4:	07000b44 	movi	fp,45
   449b8:	df002785 	stb	fp,158(sp)
   449bc:	10017b16 	blt	r2,zero,44fac <___vfprintf_internal_r+0x1c64>
   449c0:	00bfdfc4 	movi	r2,-129
   449c4:	90a4703a 	and	r18,r18,r2
   449c8:	003bb106 	br	43890 <__alt_data_end+0xfffd1890>
   449cc:	d9003617 	ldw	r4,216(sp)
   449d0:	d9403817 	ldw	r5,224(sp)
   449d4:	da003d15 	stw	r8,244(sp)
   449d8:	0049d480 	call	49d48 <__fpclassifyd>
   449dc:	da003d17 	ldw	r8,244(sp)
   449e0:	1000f026 	beq	r2,zero,44da4 <___vfprintf_internal_r+0x1a5c>
   449e4:	d9002917 	ldw	r4,164(sp)
   449e8:	05bff7c4 	movi	r22,-33
   449ec:	00bfffc4 	movi	r2,-1
   449f0:	8dac703a 	and	r22,r17,r22
   449f4:	20820026 	beq	r4,r2,451f8 <___vfprintf_internal_r+0x1eb0>
   449f8:	008011c4 	movi	r2,71
   449fc:	b081f726 	beq	r22,r2,451dc <___vfprintf_internal_r+0x1e94>
   44a00:	d9003817 	ldw	r4,224(sp)
   44a04:	90c04014 	ori	r3,r18,256
   44a08:	d8c02b15 	stw	r3,172(sp)
   44a0c:	20021516 	blt	r4,zero,45264 <___vfprintf_internal_r+0x1f1c>
   44a10:	dcc03817 	ldw	r19,224(sp)
   44a14:	d8002a05 	stb	zero,168(sp)
   44a18:	00801984 	movi	r2,102
   44a1c:	8881f926 	beq	r17,r2,45204 <___vfprintf_internal_r+0x1ebc>
   44a20:	00801184 	movi	r2,70
   44a24:	88821c26 	beq	r17,r2,45298 <___vfprintf_internal_r+0x1f50>
   44a28:	00801144 	movi	r2,69
   44a2c:	b081ef26 	beq	r22,r2,451ec <___vfprintf_internal_r+0x1ea4>
   44a30:	d8c02917 	ldw	r3,164(sp)
   44a34:	d8802104 	addi	r2,sp,132
   44a38:	d8800315 	stw	r2,12(sp)
   44a3c:	d9403617 	ldw	r5,216(sp)
   44a40:	d8802504 	addi	r2,sp,148
   44a44:	d9002c17 	ldw	r4,176(sp)
   44a48:	d8800215 	stw	r2,8(sp)
   44a4c:	d8802604 	addi	r2,sp,152
   44a50:	d8c00015 	stw	r3,0(sp)
   44a54:	d8800115 	stw	r2,4(sp)
   44a58:	01c00084 	movi	r7,2
   44a5c:	980d883a 	mov	r6,r19
   44a60:	d8c03c15 	stw	r3,240(sp)
   44a64:	da003d15 	stw	r8,244(sp)
   44a68:	0045a200 	call	45a20 <_dtoa_r>
   44a6c:	1021883a 	mov	r16,r2
   44a70:	008019c4 	movi	r2,103
   44a74:	d8c03c17 	ldw	r3,240(sp)
   44a78:	da003d17 	ldw	r8,244(sp)
   44a7c:	88817126 	beq	r17,r2,45044 <___vfprintf_internal_r+0x1cfc>
   44a80:	008011c4 	movi	r2,71
   44a84:	88829226 	beq	r17,r2,454d0 <___vfprintf_internal_r+0x2188>
   44a88:	80f9883a 	add	fp,r16,r3
   44a8c:	d9003617 	ldw	r4,216(sp)
   44a90:	000d883a 	mov	r6,zero
   44a94:	000f883a 	mov	r7,zero
   44a98:	980b883a 	mov	r5,r19
   44a9c:	da003d15 	stw	r8,244(sp)
   44aa0:	004d8940 	call	4d894 <__eqdf2>
   44aa4:	da003d17 	ldw	r8,244(sp)
   44aa8:	10018d26 	beq	r2,zero,450e0 <___vfprintf_internal_r+0x1d98>
   44aac:	d8802117 	ldw	r2,132(sp)
   44ab0:	1700062e 	bgeu	r2,fp,44acc <___vfprintf_internal_r+0x1784>
   44ab4:	01000c04 	movi	r4,48
   44ab8:	10c00044 	addi	r3,r2,1
   44abc:	d8c02115 	stw	r3,132(sp)
   44ac0:	11000005 	stb	r4,0(r2)
   44ac4:	d8802117 	ldw	r2,132(sp)
   44ac8:	173ffb36 	bltu	r2,fp,44ab8 <__alt_data_end+0xfffd2ab8>
   44acc:	1405c83a 	sub	r2,r2,r16
   44ad0:	d8803315 	stw	r2,204(sp)
   44ad4:	008011c4 	movi	r2,71
   44ad8:	b0817626 	beq	r22,r2,450b4 <___vfprintf_internal_r+0x1d6c>
   44adc:	00801944 	movi	r2,101
   44ae0:	1442810e 	bge	r2,r17,454e8 <___vfprintf_internal_r+0x21a0>
   44ae4:	d8c02617 	ldw	r3,152(sp)
   44ae8:	00801984 	movi	r2,102
   44aec:	d8c03215 	stw	r3,200(sp)
   44af0:	8881fe26 	beq	r17,r2,452ec <___vfprintf_internal_r+0x1fa4>
   44af4:	d8c03217 	ldw	r3,200(sp)
   44af8:	d9003317 	ldw	r4,204(sp)
   44afc:	1901dd16 	blt	r3,r4,45274 <___vfprintf_internal_r+0x1f2c>
   44b00:	9480004c 	andi	r18,r18,1
   44b04:	90022b1e 	bne	r18,zero,453b4 <___vfprintf_internal_r+0x206c>
   44b08:	1805883a 	mov	r2,r3
   44b0c:	18028016 	blt	r3,zero,45510 <___vfprintf_internal_r+0x21c8>
   44b10:	d8c03217 	ldw	r3,200(sp)
   44b14:	044019c4 	movi	r17,103
   44b18:	d8c02e15 	stw	r3,184(sp)
   44b1c:	df002a07 	ldb	fp,168(sp)
   44b20:	e001531e 	bne	fp,zero,45070 <___vfprintf_internal_r+0x1d28>
   44b24:	df002783 	ldbu	fp,158(sp)
   44b28:	d8802a15 	stw	r2,168(sp)
   44b2c:	dc802b17 	ldw	r18,172(sp)
   44b30:	d8002915 	stw	zero,164(sp)
   44b34:	003bd106 	br	43a7c <__alt_data_end+0xfffd1a7c>
   44b38:	d8802d17 	ldw	r2,180(sp)
   44b3c:	d8c02d17 	ldw	r3,180(sp)
   44b40:	d9002d17 	ldw	r4,180(sp)
   44b44:	10800017 	ldw	r2,0(r2)
   44b48:	18c00117 	ldw	r3,4(r3)
   44b4c:	21000204 	addi	r4,r4,8
   44b50:	d8803615 	stw	r2,216(sp)
   44b54:	d8c03815 	stw	r3,224(sp)
   44b58:	d9002d15 	stw	r4,180(sp)
   44b5c:	003b7506 	br	43934 <__alt_data_end+0xfffd1934>
   44b60:	ac400007 	ldb	r17,0(r21)
   44b64:	003a5906 	br	434cc <__alt_data_end+0xfffd14cc>
   44b68:	9080100c 	andi	r2,r18,64
   44b6c:	1000a826 	beq	r2,zero,44e10 <___vfprintf_internal_r+0x1ac8>
   44b70:	d9002d17 	ldw	r4,180(sp)
   44b74:	002d883a 	mov	r22,zero
   44b78:	24c0000b 	ldhu	r19,0(r4)
   44b7c:	21000104 	addi	r4,r4,4
   44b80:	d9002d15 	stw	r4,180(sp)
   44b84:	003ccb06 	br	43eb4 <__alt_data_end+0xfffd1eb4>
   44b88:	d8c02d17 	ldw	r3,180(sp)
   44b8c:	d9002917 	ldw	r4,164(sp)
   44b90:	002d883a 	mov	r22,zero
   44b94:	18800104 	addi	r2,r3,4
   44b98:	1cc00017 	ldw	r19,0(r3)
   44b9c:	203ebb0e 	bge	r4,zero,4468c <__alt_data_end+0xfffd268c>
   44ba0:	003ef106 	br	44768 <__alt_data_end+0xfffd2768>
   44ba4:	9080040c 	andi	r2,r18,16
   44ba8:	1000921e 	bne	r2,zero,44df4 <___vfprintf_internal_r+0x1aac>
   44bac:	9480100c 	andi	r18,r18,64
   44bb0:	90013926 	beq	r18,zero,45098 <___vfprintf_internal_r+0x1d50>
   44bb4:	d9002d17 	ldw	r4,180(sp)
   44bb8:	d9402f17 	ldw	r5,188(sp)
   44bbc:	20800017 	ldw	r2,0(r4)
   44bc0:	21000104 	addi	r4,r4,4
   44bc4:	d9002d15 	stw	r4,180(sp)
   44bc8:	1140000d 	sth	r5,0(r2)
   44bcc:	003a1606 	br	43428 <__alt_data_end+0xfffd1428>
   44bd0:	9080100c 	andi	r2,r18,64
   44bd4:	10008026 	beq	r2,zero,44dd8 <___vfprintf_internal_r+0x1a90>
   44bd8:	d8c02d17 	ldw	r3,180(sp)
   44bdc:	1cc0000f 	ldh	r19,0(r3)
   44be0:	18c00104 	addi	r3,r3,4
   44be4:	d8c02d15 	stw	r3,180(sp)
   44be8:	982dd7fa 	srai	r22,r19,31
   44bec:	b005883a 	mov	r2,r22
   44bf0:	003b1f06 	br	43870 <__alt_data_end+0xfffd1870>
   44bf4:	9080100c 	andi	r2,r18,64
   44bf8:	d8002785 	stb	zero,158(sp)
   44bfc:	10008a1e 	bne	r2,zero,44e28 <___vfprintf_internal_r+0x1ae0>
   44c00:	d9402d17 	ldw	r5,180(sp)
   44c04:	d8c02917 	ldw	r3,164(sp)
   44c08:	002d883a 	mov	r22,zero
   44c0c:	28800104 	addi	r2,r5,4
   44c10:	2cc00017 	ldw	r19,0(r5)
   44c14:	183e4b0e 	bge	r3,zero,44544 <__alt_data_end+0xfffd2544>
   44c18:	9d86b03a 	or	r3,r19,r22
   44c1c:	d8802d15 	stw	r2,180(sp)
   44c20:	183e4c1e 	bne	r3,zero,44554 <__alt_data_end+0xfffd2554>
   44c24:	0039883a 	mov	fp,zero
   44c28:	0005883a 	mov	r2,zero
   44c2c:	003d4006 	br	44130 <__alt_data_end+0xfffd2130>
   44c30:	01400174 	movhi	r5,5
   44c34:	294a2d84 	addi	r5,r5,10422
   44c38:	d9402b15 	stw	r5,172(sp)
   44c3c:	d9402b17 	ldw	r5,172(sp)
   44c40:	1c47883a 	add	r3,r3,r17
   44c44:	10800044 	addi	r2,r2,1
   44c48:	41400015 	stw	r5,0(r8)
   44c4c:	44400115 	stw	r17,4(r8)
   44c50:	d8c02015 	stw	r3,128(sp)
   44c54:	d8801f15 	stw	r2,124(sp)
   44c58:	010001c4 	movi	r4,7
   44c5c:	20bec816 	blt	r4,r2,44780 <__alt_data_end+0xfffd2780>
   44c60:	42000204 	addi	r8,r8,8
   44c64:	003ecd06 	br	4479c <__alt_data_end+0xfffd279c>
   44c68:	d9002917 	ldw	r4,164(sp)
   44c6c:	d8002785 	stb	zero,158(sp)
   44c70:	203d2d16 	blt	r4,zero,44128 <__alt_data_end+0xfffd2128>
   44c74:	00bfdfc4 	movi	r2,-129
   44c78:	90a4703a 	and	r18,r18,r2
   44c7c:	003a9106 	br	436c4 <__alt_data_end+0xfffd16c4>
   44c80:	01000174 	movhi	r4,5
   44c84:	210a2d84 	addi	r4,r4,10422
   44c88:	d9002b15 	stw	r4,172(sp)
   44c8c:	003c0c06 	br	43cc0 <__alt_data_end+0xfffd1cc0>
   44c90:	d9002c17 	ldw	r4,176(sp)
   44c94:	d9801e04 	addi	r6,sp,120
   44c98:	b80b883a 	mov	r5,r23
   44c9c:	0049f940 	call	49f94 <__sprint_r>
   44ca0:	103aab1e 	bne	r2,zero,43750 <__alt_data_end+0xfffd1750>
   44ca4:	d8c02017 	ldw	r3,128(sp)
   44ca8:	da000404 	addi	r8,sp,16
   44cac:	003d4106 	br	441b4 <__alt_data_end+0xfffd21b4>
   44cb0:	d8801f17 	ldw	r2,124(sp)
   44cb4:	01400174 	movhi	r5,5
   44cb8:	01000044 	movi	r4,1
   44cbc:	18c00044 	addi	r3,r3,1
   44cc0:	10800044 	addi	r2,r2,1
   44cc4:	294a2d04 	addi	r5,r5,10420
   44cc8:	41000115 	stw	r4,4(r8)
   44ccc:	41400015 	stw	r5,0(r8)
   44cd0:	d8c02015 	stw	r3,128(sp)
   44cd4:	d8801f15 	stw	r2,124(sp)
   44cd8:	010001c4 	movi	r4,7
   44cdc:	20805c16 	blt	r4,r2,44e50 <___vfprintf_internal_r+0x1b08>
   44ce0:	42000204 	addi	r8,r8,8
   44ce4:	8800041e 	bne	r17,zero,44cf8 <___vfprintf_internal_r+0x19b0>
   44ce8:	d8803317 	ldw	r2,204(sp)
   44cec:	1000021e 	bne	r2,zero,44cf8 <___vfprintf_internal_r+0x19b0>
   44cf0:	9080004c 	andi	r2,r18,1
   44cf4:	103c0926 	beq	r2,zero,43d1c <__alt_data_end+0xfffd1d1c>
   44cf8:	d9003717 	ldw	r4,220(sp)
   44cfc:	d8801f17 	ldw	r2,124(sp)
   44d00:	d9403417 	ldw	r5,208(sp)
   44d04:	20c7883a 	add	r3,r4,r3
   44d08:	10800044 	addi	r2,r2,1
   44d0c:	41000115 	stw	r4,4(r8)
   44d10:	41400015 	stw	r5,0(r8)
   44d14:	d8c02015 	stw	r3,128(sp)
   44d18:	d8801f15 	stw	r2,124(sp)
   44d1c:	010001c4 	movi	r4,7
   44d20:	20812116 	blt	r4,r2,451a8 <___vfprintf_internal_r+0x1e60>
   44d24:	42000204 	addi	r8,r8,8
   44d28:	0463c83a 	sub	r17,zero,r17
   44d2c:	0440730e 	bge	zero,r17,44efc <___vfprintf_internal_r+0x1bb4>
   44d30:	05800404 	movi	r22,16
   44d34:	b440860e 	bge	r22,r17,44f50 <___vfprintf_internal_r+0x1c08>
   44d38:	01400174 	movhi	r5,5
   44d3c:	294a2d84 	addi	r5,r5,10422
   44d40:	d9402b15 	stw	r5,172(sp)
   44d44:	070001c4 	movi	fp,7
   44d48:	dcc02c17 	ldw	r19,176(sp)
   44d4c:	00000306 	br	44d5c <___vfprintf_internal_r+0x1a14>
   44d50:	42000204 	addi	r8,r8,8
   44d54:	8c7ffc04 	addi	r17,r17,-16
   44d58:	b440800e 	bge	r22,r17,44f5c <___vfprintf_internal_r+0x1c14>
   44d5c:	18c00404 	addi	r3,r3,16
   44d60:	10800044 	addi	r2,r2,1
   44d64:	45000015 	stw	r20,0(r8)
   44d68:	45800115 	stw	r22,4(r8)
   44d6c:	d8c02015 	stw	r3,128(sp)
   44d70:	d8801f15 	stw	r2,124(sp)
   44d74:	e0bff60e 	bge	fp,r2,44d50 <__alt_data_end+0xfffd2d50>
   44d78:	d9801e04 	addi	r6,sp,120
   44d7c:	b80b883a 	mov	r5,r23
   44d80:	9809883a 	mov	r4,r19
   44d84:	0049f940 	call	49f94 <__sprint_r>
   44d88:	103a711e 	bne	r2,zero,43750 <__alt_data_end+0xfffd1750>
   44d8c:	d8c02017 	ldw	r3,128(sp)
   44d90:	d8801f17 	ldw	r2,124(sp)
   44d94:	da000404 	addi	r8,sp,16
   44d98:	003fee06 	br	44d54 <__alt_data_end+0xfffd2d54>
   44d9c:	00bfffc4 	movi	r2,-1
   44da0:	003a6f06 	br	43760 <__alt_data_end+0xfffd1760>
   44da4:	008011c4 	movi	r2,71
   44da8:	1440b816 	blt	r2,r17,4508c <___vfprintf_internal_r+0x1d44>
   44dac:	04000174 	movhi	r16,5
   44db0:	840a1f04 	addi	r16,r16,10364
   44db4:	00c000c4 	movi	r3,3
   44db8:	00bfdfc4 	movi	r2,-129
   44dbc:	d8c02a15 	stw	r3,168(sp)
   44dc0:	90a4703a 	and	r18,r18,r2
   44dc4:	df002783 	ldbu	fp,158(sp)
   44dc8:	d8c02e15 	stw	r3,184(sp)
   44dcc:	d8002915 	stw	zero,164(sp)
   44dd0:	d8003215 	stw	zero,200(sp)
   44dd4:	003b2906 	br	43a7c <__alt_data_end+0xfffd1a7c>
   44dd8:	d9002d17 	ldw	r4,180(sp)
   44ddc:	24c00017 	ldw	r19,0(r4)
   44de0:	21000104 	addi	r4,r4,4
   44de4:	d9002d15 	stw	r4,180(sp)
   44de8:	982dd7fa 	srai	r22,r19,31
   44dec:	b005883a 	mov	r2,r22
   44df0:	003a9f06 	br	43870 <__alt_data_end+0xfffd1870>
   44df4:	d9402d17 	ldw	r5,180(sp)
   44df8:	d8c02f17 	ldw	r3,188(sp)
   44dfc:	28800017 	ldw	r2,0(r5)
   44e00:	29400104 	addi	r5,r5,4
   44e04:	d9402d15 	stw	r5,180(sp)
   44e08:	10c00015 	stw	r3,0(r2)
   44e0c:	00398606 	br	43428 <__alt_data_end+0xfffd1428>
   44e10:	d9402d17 	ldw	r5,180(sp)
   44e14:	002d883a 	mov	r22,zero
   44e18:	2cc00017 	ldw	r19,0(r5)
   44e1c:	29400104 	addi	r5,r5,4
   44e20:	d9402d15 	stw	r5,180(sp)
   44e24:	003c2306 	br	43eb4 <__alt_data_end+0xfffd1eb4>
   44e28:	d8c02d17 	ldw	r3,180(sp)
   44e2c:	d9002917 	ldw	r4,164(sp)
   44e30:	002d883a 	mov	r22,zero
   44e34:	18800104 	addi	r2,r3,4
   44e38:	1cc0000b 	ldhu	r19,0(r3)
   44e3c:	203dc10e 	bge	r4,zero,44544 <__alt_data_end+0xfffd2544>
   44e40:	003f7506 	br	44c18 <__alt_data_end+0xfffd2c18>
   44e44:	04000174 	movhi	r16,5
   44e48:	840a1d04 	addi	r16,r16,10356
   44e4c:	003acc06 	br	43980 <__alt_data_end+0xfffd1980>
   44e50:	d9002c17 	ldw	r4,176(sp)
   44e54:	d9801e04 	addi	r6,sp,120
   44e58:	b80b883a 	mov	r5,r23
   44e5c:	0049f940 	call	49f94 <__sprint_r>
   44e60:	103a3b1e 	bne	r2,zero,43750 <__alt_data_end+0xfffd1750>
   44e64:	dc402617 	ldw	r17,152(sp)
   44e68:	d8c02017 	ldw	r3,128(sp)
   44e6c:	da000404 	addi	r8,sp,16
   44e70:	003f9c06 	br	44ce4 <__alt_data_end+0xfffd2ce4>
   44e74:	ac400043 	ldbu	r17,1(r21)
   44e78:	94800814 	ori	r18,r18,32
   44e7c:	ad400044 	addi	r21,r21,1
   44e80:	8c403fcc 	andi	r17,r17,255
   44e84:	8c40201c 	xori	r17,r17,128
   44e88:	8c7fe004 	addi	r17,r17,-128
   44e8c:	00398f06 	br	434cc <__alt_data_end+0xfffd14cc>
   44e90:	d8c02d15 	stw	r3,180(sp)
   44e94:	0039883a 	mov	fp,zero
   44e98:	003e3506 	br	44770 <__alt_data_end+0xfffd2770>
   44e9c:	d9002c17 	ldw	r4,176(sp)
   44ea0:	d9801e04 	addi	r6,sp,120
   44ea4:	b80b883a 	mov	r5,r23
   44ea8:	0049f940 	call	49f94 <__sprint_r>
   44eac:	103a281e 	bne	r2,zero,43750 <__alt_data_end+0xfffd1750>
   44eb0:	d8c02017 	ldw	r3,128(sp)
   44eb4:	da000404 	addi	r8,sp,16
